
rtarget:     file format elf64-x86-64


Disassembly of section .init:

0000000000001000 <_init>:
    1000:	f3 0f 1e fa          	endbr64 
    1004:	48 83 ec 08          	sub    $0x8,%rsp
    1008:	48 8b 05 d9 5f 00 00 	mov    0x5fd9(%rip),%rax        # 6fe8 <__gmon_start__>
    100f:	48 85 c0             	test   %rax,%rax
    1012:	74 02                	je     1016 <_init+0x16>
    1014:	ff d0                	callq  *%rax
    1016:	48 83 c4 08          	add    $0x8,%rsp
    101a:	c3                   	retq   

Disassembly of section .plt:

0000000000001020 <.plt>:
    1020:	ff 35 9a 5e 00 00    	pushq  0x5e9a(%rip)        # 6ec0 <_GLOBAL_OFFSET_TABLE_+0x8>
    1026:	f2 ff 25 9b 5e 00 00 	bnd jmpq *0x5e9b(%rip)        # 6ec8 <_GLOBAL_OFFSET_TABLE_+0x10>
    102d:	0f 1f 00             	nopl   (%rax)
    1030:	f3 0f 1e fa          	endbr64 
    1034:	68 00 00 00 00       	pushq  $0x0
    1039:	f2 e9 e1 ff ff ff    	bnd jmpq 1020 <.plt>
    103f:	90                   	nop
    1040:	f3 0f 1e fa          	endbr64 
    1044:	68 01 00 00 00       	pushq  $0x1
    1049:	f2 e9 d1 ff ff ff    	bnd jmpq 1020 <.plt>
    104f:	90                   	nop
    1050:	f3 0f 1e fa          	endbr64 
    1054:	68 02 00 00 00       	pushq  $0x2
    1059:	f2 e9 c1 ff ff ff    	bnd jmpq 1020 <.plt>
    105f:	90                   	nop
    1060:	f3 0f 1e fa          	endbr64 
    1064:	68 03 00 00 00       	pushq  $0x3
    1069:	f2 e9 b1 ff ff ff    	bnd jmpq 1020 <.plt>
    106f:	90                   	nop
    1070:	f3 0f 1e fa          	endbr64 
    1074:	68 04 00 00 00       	pushq  $0x4
    1079:	f2 e9 a1 ff ff ff    	bnd jmpq 1020 <.plt>
    107f:	90                   	nop
    1080:	f3 0f 1e fa          	endbr64 
    1084:	68 05 00 00 00       	pushq  $0x5
    1089:	f2 e9 91 ff ff ff    	bnd jmpq 1020 <.plt>
    108f:	90                   	nop
    1090:	f3 0f 1e fa          	endbr64 
    1094:	68 06 00 00 00       	pushq  $0x6
    1099:	f2 e9 81 ff ff ff    	bnd jmpq 1020 <.plt>
    109f:	90                   	nop
    10a0:	f3 0f 1e fa          	endbr64 
    10a4:	68 07 00 00 00       	pushq  $0x7
    10a9:	f2 e9 71 ff ff ff    	bnd jmpq 1020 <.plt>
    10af:	90                   	nop
    10b0:	f3 0f 1e fa          	endbr64 
    10b4:	68 08 00 00 00       	pushq  $0x8
    10b9:	f2 e9 61 ff ff ff    	bnd jmpq 1020 <.plt>
    10bf:	90                   	nop
    10c0:	f3 0f 1e fa          	endbr64 
    10c4:	68 09 00 00 00       	pushq  $0x9
    10c9:	f2 e9 51 ff ff ff    	bnd jmpq 1020 <.plt>
    10cf:	90                   	nop
    10d0:	f3 0f 1e fa          	endbr64 
    10d4:	68 0a 00 00 00       	pushq  $0xa
    10d9:	f2 e9 41 ff ff ff    	bnd jmpq 1020 <.plt>
    10df:	90                   	nop
    10e0:	f3 0f 1e fa          	endbr64 
    10e4:	68 0b 00 00 00       	pushq  $0xb
    10e9:	f2 e9 31 ff ff ff    	bnd jmpq 1020 <.plt>
    10ef:	90                   	nop
    10f0:	f3 0f 1e fa          	endbr64 
    10f4:	68 0c 00 00 00       	pushq  $0xc
    10f9:	f2 e9 21 ff ff ff    	bnd jmpq 1020 <.plt>
    10ff:	90                   	nop
    1100:	f3 0f 1e fa          	endbr64 
    1104:	68 0d 00 00 00       	pushq  $0xd
    1109:	f2 e9 11 ff ff ff    	bnd jmpq 1020 <.plt>
    110f:	90                   	nop
    1110:	f3 0f 1e fa          	endbr64 
    1114:	68 0e 00 00 00       	pushq  $0xe
    1119:	f2 e9 01 ff ff ff    	bnd jmpq 1020 <.plt>
    111f:	90                   	nop
    1120:	f3 0f 1e fa          	endbr64 
    1124:	68 0f 00 00 00       	pushq  $0xf
    1129:	f2 e9 f1 fe ff ff    	bnd jmpq 1020 <.plt>
    112f:	90                   	nop
    1130:	f3 0f 1e fa          	endbr64 
    1134:	68 10 00 00 00       	pushq  $0x10
    1139:	f2 e9 e1 fe ff ff    	bnd jmpq 1020 <.plt>
    113f:	90                   	nop
    1140:	f3 0f 1e fa          	endbr64 
    1144:	68 11 00 00 00       	pushq  $0x11
    1149:	f2 e9 d1 fe ff ff    	bnd jmpq 1020 <.plt>
    114f:	90                   	nop
    1150:	f3 0f 1e fa          	endbr64 
    1154:	68 12 00 00 00       	pushq  $0x12
    1159:	f2 e9 c1 fe ff ff    	bnd jmpq 1020 <.plt>
    115f:	90                   	nop
    1160:	f3 0f 1e fa          	endbr64 
    1164:	68 13 00 00 00       	pushq  $0x13
    1169:	f2 e9 b1 fe ff ff    	bnd jmpq 1020 <.plt>
    116f:	90                   	nop
    1170:	f3 0f 1e fa          	endbr64 
    1174:	68 14 00 00 00       	pushq  $0x14
    1179:	f2 e9 a1 fe ff ff    	bnd jmpq 1020 <.plt>
    117f:	90                   	nop
    1180:	f3 0f 1e fa          	endbr64 
    1184:	68 15 00 00 00       	pushq  $0x15
    1189:	f2 e9 91 fe ff ff    	bnd jmpq 1020 <.plt>
    118f:	90                   	nop
    1190:	f3 0f 1e fa          	endbr64 
    1194:	68 16 00 00 00       	pushq  $0x16
    1199:	f2 e9 81 fe ff ff    	bnd jmpq 1020 <.plt>
    119f:	90                   	nop
    11a0:	f3 0f 1e fa          	endbr64 
    11a4:	68 17 00 00 00       	pushq  $0x17
    11a9:	f2 e9 71 fe ff ff    	bnd jmpq 1020 <.plt>
    11af:	90                   	nop
    11b0:	f3 0f 1e fa          	endbr64 
    11b4:	68 18 00 00 00       	pushq  $0x18
    11b9:	f2 e9 61 fe ff ff    	bnd jmpq 1020 <.plt>
    11bf:	90                   	nop
    11c0:	f3 0f 1e fa          	endbr64 
    11c4:	68 19 00 00 00       	pushq  $0x19
    11c9:	f2 e9 51 fe ff ff    	bnd jmpq 1020 <.plt>
    11cf:	90                   	nop
    11d0:	f3 0f 1e fa          	endbr64 
    11d4:	68 1a 00 00 00       	pushq  $0x1a
    11d9:	f2 e9 41 fe ff ff    	bnd jmpq 1020 <.plt>
    11df:	90                   	nop
    11e0:	f3 0f 1e fa          	endbr64 
    11e4:	68 1b 00 00 00       	pushq  $0x1b
    11e9:	f2 e9 31 fe ff ff    	bnd jmpq 1020 <.plt>
    11ef:	90                   	nop
    11f0:	f3 0f 1e fa          	endbr64 
    11f4:	68 1c 00 00 00       	pushq  $0x1c
    11f9:	f2 e9 21 fe ff ff    	bnd jmpq 1020 <.plt>
    11ff:	90                   	nop
    1200:	f3 0f 1e fa          	endbr64 
    1204:	68 1d 00 00 00       	pushq  $0x1d
    1209:	f2 e9 11 fe ff ff    	bnd jmpq 1020 <.plt>
    120f:	90                   	nop
    1210:	f3 0f 1e fa          	endbr64 
    1214:	68 1e 00 00 00       	pushq  $0x1e
    1219:	f2 e9 01 fe ff ff    	bnd jmpq 1020 <.plt>
    121f:	90                   	nop
    1220:	f3 0f 1e fa          	endbr64 
    1224:	68 1f 00 00 00       	pushq  $0x1f
    1229:	f2 e9 f1 fd ff ff    	bnd jmpq 1020 <.plt>
    122f:	90                   	nop
    1230:	f3 0f 1e fa          	endbr64 
    1234:	68 20 00 00 00       	pushq  $0x20
    1239:	f2 e9 e1 fd ff ff    	bnd jmpq 1020 <.plt>
    123f:	90                   	nop

Disassembly of section .plt.got:

0000000000001240 <__cxa_finalize@plt>:
    1240:	f3 0f 1e fa          	endbr64 
    1244:	f2 ff 25 ad 5d 00 00 	bnd jmpq *0x5dad(%rip)        # 6ff8 <__cxa_finalize@GLIBC_2.2.5>
    124b:	0f 1f 44 00 00       	nopl   0x0(%rax,%rax,1)

Disassembly of section .plt.sec:

0000000000001250 <strcasecmp@plt>:
    1250:	f3 0f 1e fa          	endbr64 
    1254:	f2 ff 25 75 5c 00 00 	bnd jmpq *0x5c75(%rip)        # 6ed0 <strcasecmp@GLIBC_2.2.5>
    125b:	0f 1f 44 00 00       	nopl   0x0(%rax,%rax,1)

0000000000001260 <__errno_location@plt>:
    1260:	f3 0f 1e fa          	endbr64 
    1264:	f2 ff 25 6d 5c 00 00 	bnd jmpq *0x5c6d(%rip)        # 6ed8 <__errno_location@GLIBC_2.2.5>
    126b:	0f 1f 44 00 00       	nopl   0x0(%rax,%rax,1)

0000000000001270 <srandom@plt>:
    1270:	f3 0f 1e fa          	endbr64 
    1274:	f2 ff 25 65 5c 00 00 	bnd jmpq *0x5c65(%rip)        # 6ee0 <srandom@GLIBC_2.2.5>
    127b:	0f 1f 44 00 00       	nopl   0x0(%rax,%rax,1)

0000000000001280 <strncmp@plt>:
    1280:	f3 0f 1e fa          	endbr64 
    1284:	f2 ff 25 5d 5c 00 00 	bnd jmpq *0x5c5d(%rip)        # 6ee8 <strncmp@GLIBC_2.2.5>
    128b:	0f 1f 44 00 00       	nopl   0x0(%rax,%rax,1)

0000000000001290 <strcpy@plt>:
    1290:	f3 0f 1e fa          	endbr64 
    1294:	f2 ff 25 55 5c 00 00 	bnd jmpq *0x5c55(%rip)        # 6ef0 <strcpy@GLIBC_2.2.5>
    129b:	0f 1f 44 00 00       	nopl   0x0(%rax,%rax,1)

00000000000012a0 <puts@plt>:
    12a0:	f3 0f 1e fa          	endbr64 
    12a4:	f2 ff 25 4d 5c 00 00 	bnd jmpq *0x5c4d(%rip)        # 6ef8 <puts@GLIBC_2.2.5>
    12ab:	0f 1f 44 00 00       	nopl   0x0(%rax,%rax,1)

00000000000012b0 <write@plt>:
    12b0:	f3 0f 1e fa          	endbr64 
    12b4:	f2 ff 25 45 5c 00 00 	bnd jmpq *0x5c45(%rip)        # 6f00 <write@GLIBC_2.2.5>
    12bb:	0f 1f 44 00 00       	nopl   0x0(%rax,%rax,1)

00000000000012c0 <__stack_chk_fail@plt>:
    12c0:	f3 0f 1e fa          	endbr64 
    12c4:	f2 ff 25 3d 5c 00 00 	bnd jmpq *0x5c3d(%rip)        # 6f08 <__stack_chk_fail@GLIBC_2.4>
    12cb:	0f 1f 44 00 00       	nopl   0x0(%rax,%rax,1)

00000000000012d0 <mmap@plt>:
    12d0:	f3 0f 1e fa          	endbr64 
    12d4:	f2 ff 25 35 5c 00 00 	bnd jmpq *0x5c35(%rip)        # 6f10 <mmap@GLIBC_2.2.5>
    12db:	0f 1f 44 00 00       	nopl   0x0(%rax,%rax,1)

00000000000012e0 <memset@plt>:
    12e0:	f3 0f 1e fa          	endbr64 
    12e4:	f2 ff 25 2d 5c 00 00 	bnd jmpq *0x5c2d(%rip)        # 6f18 <memset@GLIBC_2.2.5>
    12eb:	0f 1f 44 00 00       	nopl   0x0(%rax,%rax,1)

00000000000012f0 <alarm@plt>:
    12f0:	f3 0f 1e fa          	endbr64 
    12f4:	f2 ff 25 25 5c 00 00 	bnd jmpq *0x5c25(%rip)        # 6f20 <alarm@GLIBC_2.2.5>
    12fb:	0f 1f 44 00 00       	nopl   0x0(%rax,%rax,1)

0000000000001300 <close@plt>:
    1300:	f3 0f 1e fa          	endbr64 
    1304:	f2 ff 25 1d 5c 00 00 	bnd jmpq *0x5c1d(%rip)        # 6f28 <close@GLIBC_2.2.5>
    130b:	0f 1f 44 00 00       	nopl   0x0(%rax,%rax,1)

0000000000001310 <read@plt>:
    1310:	f3 0f 1e fa          	endbr64 
    1314:	f2 ff 25 15 5c 00 00 	bnd jmpq *0x5c15(%rip)        # 6f30 <read@GLIBC_2.2.5>
    131b:	0f 1f 44 00 00       	nopl   0x0(%rax,%rax,1)

0000000000001320 <signal@plt>:
    1320:	f3 0f 1e fa          	endbr64 
    1324:	f2 ff 25 0d 5c 00 00 	bnd jmpq *0x5c0d(%rip)        # 6f38 <signal@GLIBC_2.2.5>
    132b:	0f 1f 44 00 00       	nopl   0x0(%rax,%rax,1)

0000000000001330 <gethostbyname@plt>:
    1330:	f3 0f 1e fa          	endbr64 
    1334:	f2 ff 25 05 5c 00 00 	bnd jmpq *0x5c05(%rip)        # 6f40 <gethostbyname@GLIBC_2.2.5>
    133b:	0f 1f 44 00 00       	nopl   0x0(%rax,%rax,1)

0000000000001340 <__memmove_chk@plt>:
    1340:	f3 0f 1e fa          	endbr64 
    1344:	f2 ff 25 fd 5b 00 00 	bnd jmpq *0x5bfd(%rip)        # 6f48 <__memmove_chk@GLIBC_2.3.4>
    134b:	0f 1f 44 00 00       	nopl   0x0(%rax,%rax,1)

0000000000001350 <strtol@plt>:
    1350:	f3 0f 1e fa          	endbr64 
    1354:	f2 ff 25 f5 5b 00 00 	bnd jmpq *0x5bf5(%rip)        # 6f50 <strtol@GLIBC_2.2.5>
    135b:	0f 1f 44 00 00       	nopl   0x0(%rax,%rax,1)

0000000000001360 <memcpy@plt>:
    1360:	f3 0f 1e fa          	endbr64 
    1364:	f2 ff 25 ed 5b 00 00 	bnd jmpq *0x5bed(%rip)        # 6f58 <memcpy@GLIBC_2.14>
    136b:	0f 1f 44 00 00       	nopl   0x0(%rax,%rax,1)

0000000000001370 <time@plt>:
    1370:	f3 0f 1e fa          	endbr64 
    1374:	f2 ff 25 e5 5b 00 00 	bnd jmpq *0x5be5(%rip)        # 6f60 <time@GLIBC_2.2.5>
    137b:	0f 1f 44 00 00       	nopl   0x0(%rax,%rax,1)

0000000000001380 <random@plt>:
    1380:	f3 0f 1e fa          	endbr64 
    1384:	f2 ff 25 dd 5b 00 00 	bnd jmpq *0x5bdd(%rip)        # 6f68 <random@GLIBC_2.2.5>
    138b:	0f 1f 44 00 00       	nopl   0x0(%rax,%rax,1)

0000000000001390 <__isoc99_sscanf@plt>:
    1390:	f3 0f 1e fa          	endbr64 
    1394:	f2 ff 25 d5 5b 00 00 	bnd jmpq *0x5bd5(%rip)        # 6f70 <__isoc99_sscanf@GLIBC_2.7>
    139b:	0f 1f 44 00 00       	nopl   0x0(%rax,%rax,1)

00000000000013a0 <munmap@plt>:
    13a0:	f3 0f 1e fa          	endbr64 
    13a4:	f2 ff 25 cd 5b 00 00 	bnd jmpq *0x5bcd(%rip)        # 6f78 <munmap@GLIBC_2.2.5>
    13ab:	0f 1f 44 00 00       	nopl   0x0(%rax,%rax,1)

00000000000013b0 <__printf_chk@plt>:
    13b0:	f3 0f 1e fa          	endbr64 
    13b4:	f2 ff 25 c5 5b 00 00 	bnd jmpq *0x5bc5(%rip)        # 6f80 <__printf_chk@GLIBC_2.3.4>
    13bb:	0f 1f 44 00 00       	nopl   0x0(%rax,%rax,1)

00000000000013c0 <fopen@plt>:
    13c0:	f3 0f 1e fa          	endbr64 
    13c4:	f2 ff 25 bd 5b 00 00 	bnd jmpq *0x5bbd(%rip)        # 6f88 <fopen@GLIBC_2.2.5>
    13cb:	0f 1f 44 00 00       	nopl   0x0(%rax,%rax,1)

00000000000013d0 <getopt@plt>:
    13d0:	f3 0f 1e fa          	endbr64 
    13d4:	f2 ff 25 b5 5b 00 00 	bnd jmpq *0x5bb5(%rip)        # 6f90 <getopt@GLIBC_2.2.5>
    13db:	0f 1f 44 00 00       	nopl   0x0(%rax,%rax,1)

00000000000013e0 <strtoul@plt>:
    13e0:	f3 0f 1e fa          	endbr64 
    13e4:	f2 ff 25 ad 5b 00 00 	bnd jmpq *0x5bad(%rip)        # 6f98 <strtoul@GLIBC_2.2.5>
    13eb:	0f 1f 44 00 00       	nopl   0x0(%rax,%rax,1)

00000000000013f0 <gethostname@plt>:
    13f0:	f3 0f 1e fa          	endbr64 
    13f4:	f2 ff 25 a5 5b 00 00 	bnd jmpq *0x5ba5(%rip)        # 6fa0 <gethostname@GLIBC_2.2.5>
    13fb:	0f 1f 44 00 00       	nopl   0x0(%rax,%rax,1)

0000000000001400 <exit@plt>:
    1400:	f3 0f 1e fa          	endbr64 
    1404:	f2 ff 25 9d 5b 00 00 	bnd jmpq *0x5b9d(%rip)        # 6fa8 <exit@GLIBC_2.2.5>
    140b:	0f 1f 44 00 00       	nopl   0x0(%rax,%rax,1)

0000000000001410 <connect@plt>:
    1410:	f3 0f 1e fa          	endbr64 
    1414:	f2 ff 25 95 5b 00 00 	bnd jmpq *0x5b95(%rip)        # 6fb0 <connect@GLIBC_2.2.5>
    141b:	0f 1f 44 00 00       	nopl   0x0(%rax,%rax,1)

0000000000001420 <__fprintf_chk@plt>:
    1420:	f3 0f 1e fa          	endbr64 
    1424:	f2 ff 25 8d 5b 00 00 	bnd jmpq *0x5b8d(%rip)        # 6fb8 <__fprintf_chk@GLIBC_2.3.4>
    142b:	0f 1f 44 00 00       	nopl   0x0(%rax,%rax,1)

0000000000001430 <getc@plt>:
    1430:	f3 0f 1e fa          	endbr64 
    1434:	f2 ff 25 85 5b 00 00 	bnd jmpq *0x5b85(%rip)        # 6fc0 <getc@GLIBC_2.2.5>
    143b:	0f 1f 44 00 00       	nopl   0x0(%rax,%rax,1)

0000000000001440 <__sprintf_chk@plt>:
    1440:	f3 0f 1e fa          	endbr64 
    1444:	f2 ff 25 7d 5b 00 00 	bnd jmpq *0x5b7d(%rip)        # 6fc8 <__sprintf_chk@GLIBC_2.3.4>
    144b:	0f 1f 44 00 00       	nopl   0x0(%rax,%rax,1)

0000000000001450 <socket@plt>:
    1450:	f3 0f 1e fa          	endbr64 
    1454:	f2 ff 25 75 5b 00 00 	bnd jmpq *0x5b75(%rip)        # 6fd0 <socket@GLIBC_2.2.5>
    145b:	0f 1f 44 00 00       	nopl   0x0(%rax,%rax,1)

Disassembly of section .text:

0000000000001460 <_start>:
    1460:	f3 0f 1e fa          	endbr64 
    1464:	31 ed                	xor    %ebp,%ebp
    1466:	49 89 d1             	mov    %rdx,%r9
    1469:	5e                   	pop    %rsi
    146a:	48 89 e2             	mov    %rsp,%rdx
    146d:	48 83 e4 f0          	and    $0xfffffffffffffff0,%rsp
    1471:	50                   	push   %rax
    1472:	54                   	push   %rsp
    1473:	4c 8d 05 e6 21 00 00 	lea    0x21e6(%rip),%r8        # 3660 <__libc_csu_fini>
    147a:	48 8d 0d 6f 21 00 00 	lea    0x216f(%rip),%rcx        # 35f0 <__libc_csu_init>
    1481:	48 8d 3d f8 02 00 00 	lea    0x2f8(%rip),%rdi        # 1780 <main>
    1488:	ff 15 52 5b 00 00    	callq  *0x5b52(%rip)        # 6fe0 <__libc_start_main@GLIBC_2.2.5>
    148e:	f4                   	hlt    
    148f:	90                   	nop

0000000000001490 <deregister_tm_clones>:
    1490:	48 8d 3d a1 5b 00 00 	lea    0x5ba1(%rip),%rdi        # 7038 <__TMC_END__>
    1497:	48 8d 05 9a 5b 00 00 	lea    0x5b9a(%rip),%rax        # 7038 <__TMC_END__>
    149e:	48 39 f8             	cmp    %rdi,%rax
    14a1:	74 15                	je     14b8 <deregister_tm_clones+0x28>
    14a3:	48 8b 05 2e 5b 00 00 	mov    0x5b2e(%rip),%rax        # 6fd8 <_ITM_deregisterTMCloneTable>
    14aa:	48 85 c0             	test   %rax,%rax
    14ad:	74 09                	je     14b8 <deregister_tm_clones+0x28>
    14af:	ff e0                	jmpq   *%rax
    14b1:	0f 1f 80 00 00 00 00 	nopl   0x0(%rax)
    14b8:	c3                   	retq   
    14b9:	0f 1f 80 00 00 00 00 	nopl   0x0(%rax)

00000000000014c0 <register_tm_clones>:
    14c0:	48 8d 3d 71 5b 00 00 	lea    0x5b71(%rip),%rdi        # 7038 <__TMC_END__>
    14c7:	48 8d 35 6a 5b 00 00 	lea    0x5b6a(%rip),%rsi        # 7038 <__TMC_END__>
    14ce:	48 29 fe             	sub    %rdi,%rsi
    14d1:	48 89 f0             	mov    %rsi,%rax
    14d4:	48 c1 ee 3f          	shr    $0x3f,%rsi
    14d8:	48 c1 f8 03          	sar    $0x3,%rax
    14dc:	48 01 c6             	add    %rax,%rsi
    14df:	48 d1 fe             	sar    %rsi
    14e2:	74 14                	je     14f8 <register_tm_clones+0x38>
    14e4:	48 8b 05 05 5b 00 00 	mov    0x5b05(%rip),%rax        # 6ff0 <_ITM_registerTMCloneTable>
    14eb:	48 85 c0             	test   %rax,%rax
    14ee:	74 08                	je     14f8 <register_tm_clones+0x38>
    14f0:	ff e0                	jmpq   *%rax
    14f2:	66 0f 1f 44 00 00    	nopw   0x0(%rax,%rax,1)
    14f8:	c3                   	retq   
    14f9:	0f 1f 80 00 00 00 00 	nopl   0x0(%rax)

0000000000001500 <__do_global_dtors_aux>:
    1500:	f3 0f 1e fa          	endbr64 
    1504:	80 3d 5d 5b 00 00 00 	cmpb   $0x0,0x5b5d(%rip)        # 7068 <completed.8061>
    150b:	75 2b                	jne    1538 <__do_global_dtors_aux+0x38>
    150d:	55                   	push   %rbp
    150e:	48 83 3d e2 5a 00 00 	cmpq   $0x0,0x5ae2(%rip)        # 6ff8 <__cxa_finalize@GLIBC_2.2.5>
    1515:	00 
    1516:	48 89 e5             	mov    %rsp,%rbp
    1519:	74 0c                	je     1527 <__do_global_dtors_aux+0x27>
    151b:	48 8b 3d e6 5a 00 00 	mov    0x5ae6(%rip),%rdi        # 7008 <__dso_handle>
    1522:	e8 19 fd ff ff       	callq  1240 <__cxa_finalize@plt>
    1527:	e8 64 ff ff ff       	callq  1490 <deregister_tm_clones>
    152c:	c6 05 35 5b 00 00 01 	movb   $0x1,0x5b35(%rip)        # 7068 <completed.8061>
    1533:	5d                   	pop    %rbp
    1534:	c3                   	retq   
    1535:	0f 1f 00             	nopl   (%rax)
    1538:	c3                   	retq   
    1539:	0f 1f 80 00 00 00 00 	nopl   0x0(%rax)

0000000000001540 <frame_dummy>:
    1540:	f3 0f 1e fa          	endbr64 
    1544:	e9 77 ff ff ff       	jmpq   14c0 <register_tm_clones>

0000000000001549 <usage>:
    1549:	50                   	push   %rax
    154a:	58                   	pop    %rax
    154b:	48 83 ec 08          	sub    $0x8,%rsp
    154f:	48 89 fa             	mov    %rdi,%rdx
    1552:	83 3d 73 5e 00 00 00 	cmpl   $0x0,0x5e73(%rip)        # 73cc <is_checker>
    1559:	74 50                	je     15ab <usage+0x62>
    155b:	48 8d 35 a6 2a 00 00 	lea    0x2aa6(%rip),%rsi        # 4008 <_IO_stdin_used+0x8>
    1562:	bf 01 00 00 00       	mov    $0x1,%edi
    1567:	b8 00 00 00 00       	mov    $0x0,%eax
    156c:	e8 3f fe ff ff       	callq  13b0 <__printf_chk@plt>
    1571:	48 8d 3d c8 2a 00 00 	lea    0x2ac8(%rip),%rdi        # 4040 <_IO_stdin_used+0x40>
    1578:	e8 23 fd ff ff       	callq  12a0 <puts@plt>
    157d:	48 8d 3d 04 2c 00 00 	lea    0x2c04(%rip),%rdi        # 4188 <_IO_stdin_used+0x188>
    1584:	e8 17 fd ff ff       	callq  12a0 <puts@plt>
    1589:	48 8d 3d d8 2a 00 00 	lea    0x2ad8(%rip),%rdi        # 4068 <_IO_stdin_used+0x68>
    1590:	e8 0b fd ff ff       	callq  12a0 <puts@plt>
    1595:	48 8d 3d 06 2c 00 00 	lea    0x2c06(%rip),%rdi        # 41a2 <_IO_stdin_used+0x1a2>
    159c:	e8 ff fc ff ff       	callq  12a0 <puts@plt>
    15a1:	bf 00 00 00 00       	mov    $0x0,%edi
    15a6:	e8 55 fe ff ff       	callq  1400 <exit@plt>
    15ab:	48 8d 35 0c 2c 00 00 	lea    0x2c0c(%rip),%rsi        # 41be <_IO_stdin_used+0x1be>
    15b2:	bf 01 00 00 00       	mov    $0x1,%edi
    15b7:	b8 00 00 00 00       	mov    $0x0,%eax
    15bc:	e8 ef fd ff ff       	callq  13b0 <__printf_chk@plt>
    15c1:	48 8d 3d c8 2a 00 00 	lea    0x2ac8(%rip),%rdi        # 4090 <_IO_stdin_used+0x90>
    15c8:	e8 d3 fc ff ff       	callq  12a0 <puts@plt>
    15cd:	48 8d 3d 08 2c 00 00 	lea    0x2c08(%rip),%rdi        # 41dc <_IO_stdin_used+0x1dc>
    15d4:	e8 c7 fc ff ff       	callq  12a0 <puts@plt>
    15d9:	eb c6                	jmp    15a1 <usage+0x58>

00000000000015db <initialize_target>:
    15db:	55                   	push   %rbp
    15dc:	53                   	push   %rbx
    15dd:	48 81 ec 00 10 00 00 	sub    $0x1000,%rsp
    15e4:	48 83 0c 24 00       	orq    $0x0,(%rsp)
    15e9:	48 81 ec 00 10 00 00 	sub    $0x1000,%rsp
    15f0:	48 83 0c 24 00       	orq    $0x0,(%rsp)
    15f5:	48 81 ec 18 01 00 00 	sub    $0x118,%rsp
    15fc:	89 f5                	mov    %esi,%ebp
    15fe:	64 48 8b 04 25 28 00 	mov    %fs:0x28,%rax
    1605:	00 00 
    1607:	48 89 84 24 08 21 00 	mov    %rax,0x2108(%rsp)
    160e:	00 
    160f:	31 c0                	xor    %eax,%eax
    1611:	89 3d a5 5d 00 00    	mov    %edi,0x5da5(%rip)        # 73bc <check_level>
    1617:	8b 3d f3 59 00 00    	mov    0x59f3(%rip),%edi        # 7010 <target_id>
    161d:	e8 a2 1f 00 00       	callq  35c4 <gencookie>
    1622:	89 c7                	mov    %eax,%edi
    1624:	89 05 9e 5d 00 00    	mov    %eax,0x5d9e(%rip)        # 73c8 <cookie>
    162a:	e8 95 1f 00 00       	callq  35c4 <gencookie>
    162f:	89 05 8f 5d 00 00    	mov    %eax,0x5d8f(%rip)        # 73c4 <authkey>
    1635:	8b 05 d5 59 00 00    	mov    0x59d5(%rip),%eax        # 7010 <target_id>
    163b:	8d 78 01             	lea    0x1(%rax),%edi
    163e:	e8 2d fc ff ff       	callq  1270 <srandom@plt>
    1643:	e8 38 fd ff ff       	callq  1380 <random@plt>
    1648:	48 89 c7             	mov    %rax,%rdi
    164b:	e8 20 03 00 00       	callq  1970 <scramble>
    1650:	89 c3                	mov    %eax,%ebx
    1652:	85 ed                	test   %ebp,%ebp
    1654:	75 54                	jne    16aa <initialize_target+0xcf>
    1656:	b8 00 00 00 00       	mov    $0x0,%eax
    165b:	01 d8                	add    %ebx,%eax
    165d:	0f b7 c0             	movzwl %ax,%eax
    1660:	8d 04 c5 00 01 00 00 	lea    0x100(,%rax,8),%eax
    1667:	89 c0                	mov    %eax,%eax
    1669:	48 89 05 c0 59 00 00 	mov    %rax,0x59c0(%rip)        # 7030 <buf_offset>
    1670:	c6 05 71 69 00 00 72 	movb   $0x72,0x6971(%rip)        # 7fe8 <target_prefix>
    1677:	83 3d 3a 5d 00 00 00 	cmpl   $0x0,0x5d3a(%rip)        # 73b8 <notify>
    167e:	74 09                	je     1689 <initialize_target+0xae>
    1680:	83 3d 45 5d 00 00 00 	cmpl   $0x0,0x5d45(%rip)        # 73cc <is_checker>
    1687:	74 3a                	je     16c3 <initialize_target+0xe8>
    1689:	48 8b 84 24 08 21 00 	mov    0x2108(%rsp),%rax
    1690:	00 
    1691:	64 48 33 04 25 28 00 	xor    %fs:0x28,%rax
    1698:	00 00 
    169a:	0f 85 db 00 00 00    	jne    177b <initialize_target+0x1a0>
    16a0:	48 81 c4 18 21 00 00 	add    $0x2118,%rsp
    16a7:	5b                   	pop    %rbx
    16a8:	5d                   	pop    %rbp
    16a9:	c3                   	retq   
    16aa:	bf 00 00 00 00       	mov    $0x0,%edi
    16af:	e8 bc fc ff ff       	callq  1370 <time@plt>
    16b4:	48 89 c7             	mov    %rax,%rdi
    16b7:	e8 b4 fb ff ff       	callq  1270 <srandom@plt>
    16bc:	e8 bf fc ff ff       	callq  1380 <random@plt>
    16c1:	eb 98                	jmp    165b <initialize_target+0x80>
    16c3:	48 89 e7             	mov    %rsp,%rdi
    16c6:	be 00 01 00 00       	mov    $0x100,%esi
    16cb:	e8 20 fd ff ff       	callq  13f0 <gethostname@plt>
    16d0:	89 c5                	mov    %eax,%ebp
    16d2:	85 c0                	test   %eax,%eax
    16d4:	75 26                	jne    16fc <initialize_target+0x121>
    16d6:	89 c3                	mov    %eax,%ebx
    16d8:	48 63 c3             	movslq %ebx,%rax
    16db:	48 8d 15 9e 59 00 00 	lea    0x599e(%rip),%rdx        # 7080 <host_table>
    16e2:	48 8b 3c c2          	mov    (%rdx,%rax,8),%rdi
    16e6:	48 85 ff             	test   %rdi,%rdi
    16e9:	74 2c                	je     1717 <initialize_target+0x13c>
    16eb:	48 89 e6             	mov    %rsp,%rsi
    16ee:	e8 5d fb ff ff       	callq  1250 <strcasecmp@plt>
    16f3:	85 c0                	test   %eax,%eax
    16f5:	74 1b                	je     1712 <initialize_target+0x137>
    16f7:	83 c3 01             	add    $0x1,%ebx
    16fa:	eb dc                	jmp    16d8 <initialize_target+0xfd>
    16fc:	48 8d 3d b5 29 00 00 	lea    0x29b5(%rip),%rdi        # 40b8 <_IO_stdin_used+0xb8>
    1703:	e8 98 fb ff ff       	callq  12a0 <puts@plt>
    1708:	bf 08 00 00 00       	mov    $0x8,%edi
    170d:	e8 ee fc ff ff       	callq  1400 <exit@plt>
    1712:	bd 01 00 00 00       	mov    $0x1,%ebp
    1717:	85 ed                	test   %ebp,%ebp
    1719:	74 3d                	je     1758 <initialize_target+0x17d>
    171b:	48 8d bc 24 00 01 00 	lea    0x100(%rsp),%rdi
    1722:	00 
    1723:	e8 e1 1b 00 00       	callq  3309 <init_driver>
    1728:	85 c0                	test   %eax,%eax
    172a:	0f 89 59 ff ff ff    	jns    1689 <initialize_target+0xae>
    1730:	48 8d 94 24 00 01 00 	lea    0x100(%rsp),%rdx
    1737:	00 
    1738:	48 8d 35 f1 29 00 00 	lea    0x29f1(%rip),%rsi        # 4130 <_IO_stdin_used+0x130>
    173f:	bf 01 00 00 00       	mov    $0x1,%edi
    1744:	b8 00 00 00 00       	mov    $0x0,%eax
    1749:	e8 62 fc ff ff       	callq  13b0 <__printf_chk@plt>
    174e:	bf 08 00 00 00       	mov    $0x8,%edi
    1753:	e8 a8 fc ff ff       	callq  1400 <exit@plt>
    1758:	48 89 e2             	mov    %rsp,%rdx
    175b:	48 8d 35 8e 29 00 00 	lea    0x298e(%rip),%rsi        # 40f0 <_IO_stdin_used+0xf0>
    1762:	bf 01 00 00 00       	mov    $0x1,%edi
    1767:	b8 00 00 00 00       	mov    $0x0,%eax
    176c:	e8 3f fc ff ff       	callq  13b0 <__printf_chk@plt>
    1771:	bf 08 00 00 00       	mov    $0x8,%edi
    1776:	e8 85 fc ff ff       	callq  1400 <exit@plt>
    177b:	e8 40 fb ff ff       	callq  12c0 <__stack_chk_fail@plt>

0000000000001780 <main>:
    1780:	f3 0f 1e fa          	endbr64 
    1784:	41 56                	push   %r14
    1786:	41 55                	push   %r13
    1788:	41 54                	push   %r12
    178a:	55                   	push   %rbp
    178b:	53                   	push   %rbx
    178c:	89 fd                	mov    %edi,%ebp
    178e:	48 89 f3             	mov    %rsi,%rbx
    1791:	48 8d 35 14 0e 00 00 	lea    0xe14(%rip),%rsi        # 25ac <seghandler>
    1798:	bf 0b 00 00 00       	mov    $0xb,%edi
    179d:	e8 7e fb ff ff       	callq  1320 <signal@plt>
    17a2:	48 8d 35 a9 0d 00 00 	lea    0xda9(%rip),%rsi        # 2552 <bushandler>
    17a9:	bf 07 00 00 00       	mov    $0x7,%edi
    17ae:	e8 6d fb ff ff       	callq  1320 <signal@plt>
    17b3:	48 8d 35 4c 0e 00 00 	lea    0xe4c(%rip),%rsi        # 2606 <illegalhandler>
    17ba:	bf 04 00 00 00       	mov    $0x4,%edi
    17bf:	e8 5c fb ff ff       	callq  1320 <signal@plt>
    17c4:	83 3d 01 5c 00 00 00 	cmpl   $0x0,0x5c01(%rip)        # 73cc <is_checker>
    17cb:	75 26                	jne    17f3 <main+0x73>
    17cd:	4c 8d 25 29 2a 00 00 	lea    0x2a29(%rip),%r12        # 41fd <_IO_stdin_used+0x1fd>
    17d4:	48 8b 05 65 58 00 00 	mov    0x5865(%rip),%rax        # 7040 <stdin@@GLIBC_2.2.5>
    17db:	48 89 05 ce 5b 00 00 	mov    %rax,0x5bce(%rip)        # 73b0 <infile>
    17e2:	41 bd 00 00 00 00    	mov    $0x0,%r13d
    17e8:	41 be 00 00 00 00    	mov    $0x0,%r14d
    17ee:	e9 8d 00 00 00       	jmpq   1880 <main+0x100>
    17f3:	48 8d 35 66 0e 00 00 	lea    0xe66(%rip),%rsi        # 2660 <sigalrmhandler>
    17fa:	bf 0e 00 00 00       	mov    $0xe,%edi
    17ff:	e8 1c fb ff ff       	callq  1320 <signal@plt>
    1804:	bf 05 00 00 00       	mov    $0x5,%edi
    1809:	e8 e2 fa ff ff       	callq  12f0 <alarm@plt>
    180e:	4c 8d 25 e0 29 00 00 	lea    0x29e0(%rip),%r12        # 41f5 <_IO_stdin_used+0x1f5>
    1815:	eb bd                	jmp    17d4 <main+0x54>
    1817:	48 8b 3b             	mov    (%rbx),%rdi
    181a:	e8 2a fd ff ff       	callq  1549 <usage>
    181f:	48 8d 35 d4 2b 00 00 	lea    0x2bd4(%rip),%rsi        # 43fa <_IO_stdin_used+0x3fa>
    1826:	48 8b 3d 1b 58 00 00 	mov    0x581b(%rip),%rdi        # 7048 <optarg@@GLIBC_2.2.5>
    182d:	e8 8e fb ff ff       	callq  13c0 <fopen@plt>
    1832:	48 89 05 77 5b 00 00 	mov    %rax,0x5b77(%rip)        # 73b0 <infile>
    1839:	48 85 c0             	test   %rax,%rax
    183c:	75 42                	jne    1880 <main+0x100>
    183e:	48 8b 0d 03 58 00 00 	mov    0x5803(%rip),%rcx        # 7048 <optarg@@GLIBC_2.2.5>
    1845:	48 8d 15 b6 29 00 00 	lea    0x29b6(%rip),%rdx        # 4202 <_IO_stdin_used+0x202>
    184c:	be 01 00 00 00       	mov    $0x1,%esi
    1851:	48 8b 3d 08 58 00 00 	mov    0x5808(%rip),%rdi        # 7060 <stderr@@GLIBC_2.2.5>
    1858:	e8 c3 fb ff ff       	callq  1420 <__fprintf_chk@plt>
    185d:	b8 01 00 00 00       	mov    $0x1,%eax
    1862:	e9 db 00 00 00       	jmpq   1942 <main+0x1c2>
    1867:	ba 10 00 00 00       	mov    $0x10,%edx
    186c:	be 00 00 00 00       	mov    $0x0,%esi
    1871:	48 8b 3d d0 57 00 00 	mov    0x57d0(%rip),%rdi        # 7048 <optarg@@GLIBC_2.2.5>
    1878:	e8 63 fb ff ff       	callq  13e0 <strtoul@plt>
    187d:	41 89 c6             	mov    %eax,%r14d
    1880:	4c 89 e2             	mov    %r12,%rdx
    1883:	48 89 de             	mov    %rbx,%rsi
    1886:	89 ef                	mov    %ebp,%edi
    1888:	e8 43 fb ff ff       	callq  13d0 <getopt@plt>
    188d:	3c ff                	cmp    $0xff,%al
    188f:	74 65                	je     18f6 <main+0x176>
    1891:	0f be c8             	movsbl %al,%ecx
    1894:	83 e8 61             	sub    $0x61,%eax
    1897:	3c 10                	cmp    $0x10,%al
    1899:	77 3b                	ja     18d6 <main+0x156>
    189b:	0f b6 c0             	movzbl %al,%eax
    189e:	48 8d 15 9b 29 00 00 	lea    0x299b(%rip),%rdx        # 4240 <_IO_stdin_used+0x240>
    18a5:	48 63 04 82          	movslq (%rdx,%rax,4),%rax
    18a9:	48 01 d0             	add    %rdx,%rax
    18ac:	3e ff e0             	notrack jmpq *%rax
    18af:	ba 0a 00 00 00       	mov    $0xa,%edx
    18b4:	be 00 00 00 00       	mov    $0x0,%esi
    18b9:	48 8b 3d 88 57 00 00 	mov    0x5788(%rip),%rdi        # 7048 <optarg@@GLIBC_2.2.5>
    18c0:	e8 8b fa ff ff       	callq  1350 <strtol@plt>
    18c5:	41 89 c5             	mov    %eax,%r13d
    18c8:	eb b6                	jmp    1880 <main+0x100>
    18ca:	c7 05 e4 5a 00 00 00 	movl   $0x0,0x5ae4(%rip)        # 73b8 <notify>
    18d1:	00 00 00 
    18d4:	eb aa                	jmp    1880 <main+0x100>
    18d6:	89 ca                	mov    %ecx,%edx
    18d8:	48 8d 35 40 29 00 00 	lea    0x2940(%rip),%rsi        # 421f <_IO_stdin_used+0x21f>
    18df:	bf 01 00 00 00       	mov    $0x1,%edi
    18e4:	b8 00 00 00 00       	mov    $0x0,%eax
    18e9:	e8 c2 fa ff ff       	callq  13b0 <__printf_chk@plt>
    18ee:	48 8b 3b             	mov    (%rbx),%rdi
    18f1:	e8 53 fc ff ff       	callq  1549 <usage>
    18f6:	be 01 00 00 00       	mov    $0x1,%esi
    18fb:	44 89 ef             	mov    %r13d,%edi
    18fe:	e8 d8 fc ff ff       	callq  15db <initialize_target>
    1903:	83 3d c2 5a 00 00 00 	cmpl   $0x0,0x5ac2(%rip)        # 73cc <is_checker>
    190a:	74 09                	je     1915 <main+0x195>
    190c:	44 39 35 b1 5a 00 00 	cmp    %r14d,0x5ab1(%rip)        # 73c4 <authkey>
    1913:	75 36                	jne    194b <main+0x1cb>
    1915:	8b 15 ad 5a 00 00    	mov    0x5aad(%rip),%edx        # 73c8 <cookie>
    191b:	48 8d 35 10 29 00 00 	lea    0x2910(%rip),%rsi        # 4232 <_IO_stdin_used+0x232>
    1922:	bf 01 00 00 00       	mov    $0x1,%edi
    1927:	b8 00 00 00 00       	mov    $0x0,%eax
    192c:	e8 7f fa ff ff       	callq  13b0 <__printf_chk@plt>
    1931:	48 8b 3d f8 56 00 00 	mov    0x56f8(%rip),%rdi        # 7030 <buf_offset>
    1938:	e8 80 0d 00 00       	callq  26bd <launch>
    193d:	b8 00 00 00 00       	mov    $0x0,%eax
    1942:	5b                   	pop    %rbx
    1943:	5d                   	pop    %rbp
    1944:	41 5c                	pop    %r12
    1946:	41 5d                	pop    %r13
    1948:	41 5e                	pop    %r14
    194a:	c3                   	retq   
    194b:	44 89 f2             	mov    %r14d,%edx
    194e:	48 8d 35 03 28 00 00 	lea    0x2803(%rip),%rsi        # 4158 <_IO_stdin_used+0x158>
    1955:	bf 01 00 00 00       	mov    $0x1,%edi
    195a:	b8 00 00 00 00       	mov    $0x0,%eax
    195f:	e8 4c fa ff ff       	callq  13b0 <__printf_chk@plt>
    1964:	b8 00 00 00 00       	mov    $0x0,%eax
    1969:	e8 57 09 00 00       	callq  22c5 <check_fail>
    196e:	eb a5                	jmp    1915 <main+0x195>

0000000000001970 <scramble>:
    1970:	f3 0f 1e fa          	endbr64 
    1974:	48 83 ec 38          	sub    $0x38,%rsp
    1978:	64 48 8b 04 25 28 00 	mov    %fs:0x28,%rax
    197f:	00 00 
    1981:	48 89 44 24 28       	mov    %rax,0x28(%rsp)
    1986:	31 c0                	xor    %eax,%eax
    1988:	83 f8 09             	cmp    $0x9,%eax
    198b:	77 12                	ja     199f <scramble+0x2f>
    198d:	69 d0 93 b4 00 00    	imul   $0xb493,%eax,%edx
    1993:	01 fa                	add    %edi,%edx
    1995:	89 c1                	mov    %eax,%ecx
    1997:	89 14 8c             	mov    %edx,(%rsp,%rcx,4)
    199a:	83 c0 01             	add    $0x1,%eax
    199d:	eb e9                	jmp    1988 <scramble+0x18>
    199f:	8b 04 24             	mov    (%rsp),%eax
    19a2:	69 c0 c7 2b 00 00    	imul   $0x2bc7,%eax,%eax
    19a8:	89 04 24             	mov    %eax,(%rsp)
    19ab:	8b 04 24             	mov    (%rsp),%eax
    19ae:	69 c0 ce 24 00 00    	imul   $0x24ce,%eax,%eax
    19b4:	89 04 24             	mov    %eax,(%rsp)
    19b7:	8b 44 24 18          	mov    0x18(%rsp),%eax
    19bb:	69 c0 3c 8e 00 00    	imul   $0x8e3c,%eax,%eax
    19c1:	89 44 24 18          	mov    %eax,0x18(%rsp)
    19c5:	8b 44 24 14          	mov    0x14(%rsp),%eax
    19c9:	69 c0 c5 2e 00 00    	imul   $0x2ec5,%eax,%eax
    19cf:	89 44 24 14          	mov    %eax,0x14(%rsp)
    19d3:	8b 44 24 20          	mov    0x20(%rsp),%eax
    19d7:	69 c0 88 95 00 00    	imul   $0x9588,%eax,%eax
    19dd:	89 44 24 20          	mov    %eax,0x20(%rsp)
    19e1:	8b 44 24 18          	mov    0x18(%rsp),%eax
    19e5:	69 c0 20 92 00 00    	imul   $0x9220,%eax,%eax
    19eb:	89 44 24 18          	mov    %eax,0x18(%rsp)
    19ef:	8b 44 24 18          	mov    0x18(%rsp),%eax
    19f3:	69 c0 35 e6 00 00    	imul   $0xe635,%eax,%eax
    19f9:	89 44 24 18          	mov    %eax,0x18(%rsp)
    19fd:	8b 04 24             	mov    (%rsp),%eax
    1a00:	69 c0 88 d3 00 00    	imul   $0xd388,%eax,%eax
    1a06:	89 04 24             	mov    %eax,(%rsp)
    1a09:	8b 44 24 1c          	mov    0x1c(%rsp),%eax
    1a0d:	69 c0 51 73 00 00    	imul   $0x7351,%eax,%eax
    1a13:	89 44 24 1c          	mov    %eax,0x1c(%rsp)
    1a17:	8b 44 24 24          	mov    0x24(%rsp),%eax
    1a1b:	69 c0 72 67 00 00    	imul   $0x6772,%eax,%eax
    1a21:	89 44 24 24          	mov    %eax,0x24(%rsp)
    1a25:	8b 44 24 04          	mov    0x4(%rsp),%eax
    1a29:	69 c0 be d0 00 00    	imul   $0xd0be,%eax,%eax
    1a2f:	89 44 24 04          	mov    %eax,0x4(%rsp)
    1a33:	8b 44 24 18          	mov    0x18(%rsp),%eax
    1a37:	69 c0 9b 99 00 00    	imul   $0x999b,%eax,%eax
    1a3d:	89 44 24 18          	mov    %eax,0x18(%rsp)
    1a41:	8b 04 24             	mov    (%rsp),%eax
    1a44:	69 c0 f7 7b 00 00    	imul   $0x7bf7,%eax,%eax
    1a4a:	89 04 24             	mov    %eax,(%rsp)
    1a4d:	8b 44 24 18          	mov    0x18(%rsp),%eax
    1a51:	69 c0 f3 a7 00 00    	imul   $0xa7f3,%eax,%eax
    1a57:	89 44 24 18          	mov    %eax,0x18(%rsp)
    1a5b:	8b 44 24 18          	mov    0x18(%rsp),%eax
    1a5f:	69 c0 d1 78 00 00    	imul   $0x78d1,%eax,%eax
    1a65:	89 44 24 18          	mov    %eax,0x18(%rsp)
    1a69:	8b 44 24 10          	mov    0x10(%rsp),%eax
    1a6d:	69 c0 ab f4 00 00    	imul   $0xf4ab,%eax,%eax
    1a73:	89 44 24 10          	mov    %eax,0x10(%rsp)
    1a77:	8b 44 24 14          	mov    0x14(%rsp),%eax
    1a7b:	69 c0 15 10 00 00    	imul   $0x1015,%eax,%eax
    1a81:	89 44 24 14          	mov    %eax,0x14(%rsp)
    1a85:	8b 44 24 04          	mov    0x4(%rsp),%eax
    1a89:	69 c0 0a ad 00 00    	imul   $0xad0a,%eax,%eax
    1a8f:	89 44 24 04          	mov    %eax,0x4(%rsp)
    1a93:	8b 44 24 14          	mov    0x14(%rsp),%eax
    1a97:	69 c0 58 b4 00 00    	imul   $0xb458,%eax,%eax
    1a9d:	89 44 24 14          	mov    %eax,0x14(%rsp)
    1aa1:	8b 04 24             	mov    (%rsp),%eax
    1aa4:	69 c0 fa 15 00 00    	imul   $0x15fa,%eax,%eax
    1aaa:	89 04 24             	mov    %eax,(%rsp)
    1aad:	8b 44 24 10          	mov    0x10(%rsp),%eax
    1ab1:	69 c0 0a f1 00 00    	imul   $0xf10a,%eax,%eax
    1ab7:	89 44 24 10          	mov    %eax,0x10(%rsp)
    1abb:	8b 44 24 24          	mov    0x24(%rsp),%eax
    1abf:	69 c0 fa 2c 00 00    	imul   $0x2cfa,%eax,%eax
    1ac5:	89 44 24 24          	mov    %eax,0x24(%rsp)
    1ac9:	8b 04 24             	mov    (%rsp),%eax
    1acc:	69 c0 ee f4 00 00    	imul   $0xf4ee,%eax,%eax
    1ad2:	89 04 24             	mov    %eax,(%rsp)
    1ad5:	8b 44 24 24          	mov    0x24(%rsp),%eax
    1ad9:	69 c0 f5 c3 00 00    	imul   $0xc3f5,%eax,%eax
    1adf:	89 44 24 24          	mov    %eax,0x24(%rsp)
    1ae3:	8b 44 24 10          	mov    0x10(%rsp),%eax
    1ae7:	69 c0 a1 0e 00 00    	imul   $0xea1,%eax,%eax
    1aed:	89 44 24 10          	mov    %eax,0x10(%rsp)
    1af1:	8b 44 24 1c          	mov    0x1c(%rsp),%eax
    1af5:	69 c0 46 fa 00 00    	imul   $0xfa46,%eax,%eax
    1afb:	89 44 24 1c          	mov    %eax,0x1c(%rsp)
    1aff:	8b 44 24 04          	mov    0x4(%rsp),%eax
    1b03:	69 c0 3d 1f 00 00    	imul   $0x1f3d,%eax,%eax
    1b09:	89 44 24 04          	mov    %eax,0x4(%rsp)
    1b0d:	8b 44 24 10          	mov    0x10(%rsp),%eax
    1b11:	69 c0 40 59 00 00    	imul   $0x5940,%eax,%eax
    1b17:	89 44 24 10          	mov    %eax,0x10(%rsp)
    1b1b:	8b 44 24 14          	mov    0x14(%rsp),%eax
    1b1f:	69 c0 a3 c4 00 00    	imul   $0xc4a3,%eax,%eax
    1b25:	89 44 24 14          	mov    %eax,0x14(%rsp)
    1b29:	8b 44 24 08          	mov    0x8(%rsp),%eax
    1b2d:	69 c0 4c db 00 00    	imul   $0xdb4c,%eax,%eax
    1b33:	89 44 24 08          	mov    %eax,0x8(%rsp)
    1b37:	8b 44 24 1c          	mov    0x1c(%rsp),%eax
    1b3b:	69 c0 dd 53 00 00    	imul   $0x53dd,%eax,%eax
    1b41:	89 44 24 1c          	mov    %eax,0x1c(%rsp)
    1b45:	8b 44 24 20          	mov    0x20(%rsp),%eax
    1b49:	69 c0 0c e2 00 00    	imul   $0xe20c,%eax,%eax
    1b4f:	89 44 24 20          	mov    %eax,0x20(%rsp)
    1b53:	8b 44 24 14          	mov    0x14(%rsp),%eax
    1b57:	69 c0 70 e9 00 00    	imul   $0xe970,%eax,%eax
    1b5d:	89 44 24 14          	mov    %eax,0x14(%rsp)
    1b61:	8b 44 24 18          	mov    0x18(%rsp),%eax
    1b65:	69 c0 43 02 00 00    	imul   $0x243,%eax,%eax
    1b6b:	89 44 24 18          	mov    %eax,0x18(%rsp)
    1b6f:	8b 44 24 24          	mov    0x24(%rsp),%eax
    1b73:	69 c0 e6 6a 00 00    	imul   $0x6ae6,%eax,%eax
    1b79:	89 44 24 24          	mov    %eax,0x24(%rsp)
    1b7d:	8b 44 24 18          	mov    0x18(%rsp),%eax
    1b81:	69 c0 a8 e7 00 00    	imul   $0xe7a8,%eax,%eax
    1b87:	89 44 24 18          	mov    %eax,0x18(%rsp)
    1b8b:	8b 44 24 18          	mov    0x18(%rsp),%eax
    1b8f:	69 c0 57 c0 00 00    	imul   $0xc057,%eax,%eax
    1b95:	89 44 24 18          	mov    %eax,0x18(%rsp)
    1b99:	8b 44 24 1c          	mov    0x1c(%rsp),%eax
    1b9d:	69 c0 30 33 00 00    	imul   $0x3330,%eax,%eax
    1ba3:	89 44 24 1c          	mov    %eax,0x1c(%rsp)
    1ba7:	8b 44 24 24          	mov    0x24(%rsp),%eax
    1bab:	69 c0 25 15 00 00    	imul   $0x1525,%eax,%eax
    1bb1:	89 44 24 24          	mov    %eax,0x24(%rsp)
    1bb5:	8b 44 24 18          	mov    0x18(%rsp),%eax
    1bb9:	69 c0 84 1d 00 00    	imul   $0x1d84,%eax,%eax
    1bbf:	89 44 24 18          	mov    %eax,0x18(%rsp)
    1bc3:	8b 44 24 20          	mov    0x20(%rsp),%eax
    1bc7:	69 c0 8d 22 00 00    	imul   $0x228d,%eax,%eax
    1bcd:	89 44 24 20          	mov    %eax,0x20(%rsp)
    1bd1:	8b 44 24 08          	mov    0x8(%rsp),%eax
    1bd5:	69 c0 26 03 00 00    	imul   $0x326,%eax,%eax
    1bdb:	89 44 24 08          	mov    %eax,0x8(%rsp)
    1bdf:	8b 04 24             	mov    (%rsp),%eax
    1be2:	69 c0 ac ab 00 00    	imul   $0xabac,%eax,%eax
    1be8:	89 04 24             	mov    %eax,(%rsp)
    1beb:	8b 44 24 0c          	mov    0xc(%rsp),%eax
    1bef:	69 c0 fe dc 00 00    	imul   $0xdcfe,%eax,%eax
    1bf5:	89 44 24 0c          	mov    %eax,0xc(%rsp)
    1bf9:	8b 44 24 20          	mov    0x20(%rsp),%eax
    1bfd:	69 c0 99 5d 00 00    	imul   $0x5d99,%eax,%eax
    1c03:	89 44 24 20          	mov    %eax,0x20(%rsp)
    1c07:	8b 44 24 20          	mov    0x20(%rsp),%eax
    1c0b:	69 c0 c4 ad 00 00    	imul   $0xadc4,%eax,%eax
    1c11:	89 44 24 20          	mov    %eax,0x20(%rsp)
    1c15:	8b 44 24 18          	mov    0x18(%rsp),%eax
    1c19:	69 c0 41 88 00 00    	imul   $0x8841,%eax,%eax
    1c1f:	89 44 24 18          	mov    %eax,0x18(%rsp)
    1c23:	8b 04 24             	mov    (%rsp),%eax
    1c26:	69 c0 69 15 00 00    	imul   $0x1569,%eax,%eax
    1c2c:	89 04 24             	mov    %eax,(%rsp)
    1c2f:	8b 04 24             	mov    (%rsp),%eax
    1c32:	69 c0 e7 1e 00 00    	imul   $0x1ee7,%eax,%eax
    1c38:	89 04 24             	mov    %eax,(%rsp)
    1c3b:	8b 44 24 10          	mov    0x10(%rsp),%eax
    1c3f:	69 c0 7a 0f 00 00    	imul   $0xf7a,%eax,%eax
    1c45:	89 44 24 10          	mov    %eax,0x10(%rsp)
    1c49:	8b 44 24 1c          	mov    0x1c(%rsp),%eax
    1c4d:	69 c0 ea 2f 00 00    	imul   $0x2fea,%eax,%eax
    1c53:	89 44 24 1c          	mov    %eax,0x1c(%rsp)
    1c57:	8b 44 24 24          	mov    0x24(%rsp),%eax
    1c5b:	69 c0 be e5 00 00    	imul   $0xe5be,%eax,%eax
    1c61:	89 44 24 24          	mov    %eax,0x24(%rsp)
    1c65:	8b 04 24             	mov    (%rsp),%eax
    1c68:	69 c0 c5 0b 00 00    	imul   $0xbc5,%eax,%eax
    1c6e:	89 04 24             	mov    %eax,(%rsp)
    1c71:	8b 44 24 10          	mov    0x10(%rsp),%eax
    1c75:	69 c0 87 a5 00 00    	imul   $0xa587,%eax,%eax
    1c7b:	89 44 24 10          	mov    %eax,0x10(%rsp)
    1c7f:	8b 44 24 1c          	mov    0x1c(%rsp),%eax
    1c83:	69 c0 14 10 00 00    	imul   $0x1014,%eax,%eax
    1c89:	89 44 24 1c          	mov    %eax,0x1c(%rsp)
    1c8d:	8b 44 24 1c          	mov    0x1c(%rsp),%eax
    1c91:	69 c0 b1 44 00 00    	imul   $0x44b1,%eax,%eax
    1c97:	89 44 24 1c          	mov    %eax,0x1c(%rsp)
    1c9b:	8b 44 24 1c          	mov    0x1c(%rsp),%eax
    1c9f:	69 c0 d6 da 00 00    	imul   $0xdad6,%eax,%eax
    1ca5:	89 44 24 1c          	mov    %eax,0x1c(%rsp)
    1ca9:	8b 44 24 20          	mov    0x20(%rsp),%eax
    1cad:	69 c0 6c 74 00 00    	imul   $0x746c,%eax,%eax
    1cb3:	89 44 24 20          	mov    %eax,0x20(%rsp)
    1cb7:	8b 44 24 20          	mov    0x20(%rsp),%eax
    1cbb:	69 c0 3d a4 00 00    	imul   $0xa43d,%eax,%eax
    1cc1:	89 44 24 20          	mov    %eax,0x20(%rsp)
    1cc5:	8b 44 24 10          	mov    0x10(%rsp),%eax
    1cc9:	69 c0 d1 f6 00 00    	imul   $0xf6d1,%eax,%eax
    1ccf:	89 44 24 10          	mov    %eax,0x10(%rsp)
    1cd3:	8b 44 24 24          	mov    0x24(%rsp),%eax
    1cd7:	69 c0 b5 09 00 00    	imul   $0x9b5,%eax,%eax
    1cdd:	89 44 24 24          	mov    %eax,0x24(%rsp)
    1ce1:	8b 44 24 10          	mov    0x10(%rsp),%eax
    1ce5:	69 c0 4c b3 00 00    	imul   $0xb34c,%eax,%eax
    1ceb:	89 44 24 10          	mov    %eax,0x10(%rsp)
    1cef:	8b 44 24 04          	mov    0x4(%rsp),%eax
    1cf3:	69 c0 66 34 00 00    	imul   $0x3466,%eax,%eax
    1cf9:	89 44 24 04          	mov    %eax,0x4(%rsp)
    1cfd:	8b 44 24 24          	mov    0x24(%rsp),%eax
    1d01:	69 c0 a8 03 00 00    	imul   $0x3a8,%eax,%eax
    1d07:	89 44 24 24          	mov    %eax,0x24(%rsp)
    1d0b:	8b 44 24 0c          	mov    0xc(%rsp),%eax
    1d0f:	69 c0 62 e0 00 00    	imul   $0xe062,%eax,%eax
    1d15:	89 44 24 0c          	mov    %eax,0xc(%rsp)
    1d19:	8b 44 24 20          	mov    0x20(%rsp),%eax
    1d1d:	69 c0 1b dd 00 00    	imul   $0xdd1b,%eax,%eax
    1d23:	89 44 24 20          	mov    %eax,0x20(%rsp)
    1d27:	8b 44 24 20          	mov    0x20(%rsp),%eax
    1d2b:	69 c0 46 0a 00 00    	imul   $0xa46,%eax,%eax
    1d31:	89 44 24 20          	mov    %eax,0x20(%rsp)
    1d35:	8b 44 24 14          	mov    0x14(%rsp),%eax
    1d39:	69 c0 8d 00 00 00    	imul   $0x8d,%eax,%eax
    1d3f:	89 44 24 14          	mov    %eax,0x14(%rsp)
    1d43:	8b 44 24 18          	mov    0x18(%rsp),%eax
    1d47:	69 c0 c8 db 00 00    	imul   $0xdbc8,%eax,%eax
    1d4d:	89 44 24 18          	mov    %eax,0x18(%rsp)
    1d51:	8b 44 24 10          	mov    0x10(%rsp),%eax
    1d55:	69 c0 f6 36 00 00    	imul   $0x36f6,%eax,%eax
    1d5b:	89 44 24 10          	mov    %eax,0x10(%rsp)
    1d5f:	8b 44 24 0c          	mov    0xc(%rsp),%eax
    1d63:	69 c0 20 69 00 00    	imul   $0x6920,%eax,%eax
    1d69:	89 44 24 0c          	mov    %eax,0xc(%rsp)
    1d6d:	8b 44 24 08          	mov    0x8(%rsp),%eax
    1d71:	69 c0 7e 1e 00 00    	imul   $0x1e7e,%eax,%eax
    1d77:	89 44 24 08          	mov    %eax,0x8(%rsp)
    1d7b:	8b 44 24 18          	mov    0x18(%rsp),%eax
    1d7f:	69 c0 7e c3 00 00    	imul   $0xc37e,%eax,%eax
    1d85:	89 44 24 18          	mov    %eax,0x18(%rsp)
    1d89:	8b 44 24 24          	mov    0x24(%rsp),%eax
    1d8d:	69 c0 78 ca 00 00    	imul   $0xca78,%eax,%eax
    1d93:	89 44 24 24          	mov    %eax,0x24(%rsp)
    1d97:	8b 44 24 04          	mov    0x4(%rsp),%eax
    1d9b:	69 c0 54 e4 00 00    	imul   $0xe454,%eax,%eax
    1da1:	89 44 24 04          	mov    %eax,0x4(%rsp)
    1da5:	8b 44 24 04          	mov    0x4(%rsp),%eax
    1da9:	69 c0 91 69 00 00    	imul   $0x6991,%eax,%eax
    1daf:	89 44 24 04          	mov    %eax,0x4(%rsp)
    1db3:	8b 44 24 1c          	mov    0x1c(%rsp),%eax
    1db7:	69 c0 df 65 00 00    	imul   $0x65df,%eax,%eax
    1dbd:	89 44 24 1c          	mov    %eax,0x1c(%rsp)
    1dc1:	8b 44 24 24          	mov    0x24(%rsp),%eax
    1dc5:	c1 e0 0f             	shl    $0xf,%eax
    1dc8:	89 44 24 24          	mov    %eax,0x24(%rsp)
    1dcc:	8b 44 24 08          	mov    0x8(%rsp),%eax
    1dd0:	69 c0 93 e5 00 00    	imul   $0xe593,%eax,%eax
    1dd6:	89 44 24 08          	mov    %eax,0x8(%rsp)
    1dda:	8b 44 24 14          	mov    0x14(%rsp),%eax
    1dde:	69 c0 92 ed 00 00    	imul   $0xed92,%eax,%eax
    1de4:	89 44 24 14          	mov    %eax,0x14(%rsp)
    1de8:	8b 44 24 18          	mov    0x18(%rsp),%eax
    1dec:	69 c0 cb 96 00 00    	imul   $0x96cb,%eax,%eax
    1df2:	89 44 24 18          	mov    %eax,0x18(%rsp)
    1df6:	8b 44 24 1c          	mov    0x1c(%rsp),%eax
    1dfa:	69 c0 41 d6 00 00    	imul   $0xd641,%eax,%eax
    1e00:	89 44 24 1c          	mov    %eax,0x1c(%rsp)
    1e04:	8b 04 24             	mov    (%rsp),%eax
    1e07:	69 c0 88 8d 00 00    	imul   $0x8d88,%eax,%eax
    1e0d:	89 04 24             	mov    %eax,(%rsp)
    1e10:	8b 44 24 18          	mov    0x18(%rsp),%eax
    1e14:	69 c0 1d b7 00 00    	imul   $0xb71d,%eax,%eax
    1e1a:	89 44 24 18          	mov    %eax,0x18(%rsp)
    1e1e:	8b 44 24 1c          	mov    0x1c(%rsp),%eax
    1e22:	69 c0 e3 7c 00 00    	imul   $0x7ce3,%eax,%eax
    1e28:	89 44 24 1c          	mov    %eax,0x1c(%rsp)
    1e2c:	8b 44 24 04          	mov    0x4(%rsp),%eax
    1e30:	69 c0 2d 55 00 00    	imul   $0x552d,%eax,%eax
    1e36:	89 44 24 04          	mov    %eax,0x4(%rsp)
    1e3a:	b8 00 00 00 00       	mov    $0x0,%eax
    1e3f:	ba 00 00 00 00       	mov    $0x0,%edx
    1e44:	83 f8 09             	cmp    $0x9,%eax
    1e47:	77 0c                	ja     1e55 <scramble+0x4e5>
    1e49:	89 c1                	mov    %eax,%ecx
    1e4b:	8b 0c 8c             	mov    (%rsp,%rcx,4),%ecx
    1e4e:	01 ca                	add    %ecx,%edx
    1e50:	83 c0 01             	add    $0x1,%eax
    1e53:	eb ef                	jmp    1e44 <scramble+0x4d4>
    1e55:	48 8b 44 24 28       	mov    0x28(%rsp),%rax
    1e5a:	64 48 33 04 25 28 00 	xor    %fs:0x28,%rax
    1e61:	00 00 
    1e63:	75 07                	jne    1e6c <scramble+0x4fc>
    1e65:	89 d0                	mov    %edx,%eax
    1e67:	48 83 c4 38          	add    $0x38,%rsp
    1e6b:	c3                   	retq   
    1e6c:	e8 4f f4 ff ff       	callq  12c0 <__stack_chk_fail@plt>

0000000000001e71 <getbuf>:
    1e71:	f3 0f 1e fa          	endbr64 
    1e75:	48 83 ec 38          	sub    $0x38,%rsp
    1e79:	48 89 e7             	mov    %rsp,%rdi
    1e7c:	e8 82 04 00 00       	callq  2303 <Gets>
    1e81:	b8 01 00 00 00       	mov    $0x1,%eax
    1e86:	48 83 c4 38          	add    $0x38,%rsp
    1e8a:	c3                   	retq   

0000000000001e8b <touch1>:
    1e8b:	f3 0f 1e fa          	endbr64 
    1e8f:	50                   	push   %rax
    1e90:	58                   	pop    %rax
    1e91:	48 83 ec 08          	sub    $0x8,%rsp
    1e95:	c7 05 21 55 00 00 01 	movl   $0x1,0x5521(%rip)        # 73c0 <vlevel>
    1e9c:	00 00 00 
    1e9f:	48 8d 3d f6 23 00 00 	lea    0x23f6(%rip),%rdi        # 429c <_IO_stdin_used+0x29c>
    1ea6:	e8 f5 f3 ff ff       	callq  12a0 <puts@plt>
    1eab:	bf 01 00 00 00       	mov    $0x1,%edi
    1eb0:	e8 9d 05 00 00       	callq  2452 <validate>
    1eb5:	bf 00 00 00 00       	mov    $0x0,%edi
    1eba:	e8 41 f5 ff ff       	callq  1400 <exit@plt>

0000000000001ebf <touch2>:
    1ebf:	f3 0f 1e fa          	endbr64 
    1ec3:	50                   	push   %rax
    1ec4:	58                   	pop    %rax
    1ec5:	48 83 ec 08          	sub    $0x8,%rsp
    1ec9:	89 fa                	mov    %edi,%edx
    1ecb:	c7 05 eb 54 00 00 02 	movl   $0x2,0x54eb(%rip)        # 73c0 <vlevel>
    1ed2:	00 00 00 
    1ed5:	39 3d ed 54 00 00    	cmp    %edi,0x54ed(%rip)        # 73c8 <cookie>
    1edb:	74 2a                	je     1f07 <touch2+0x48>
    1edd:	48 8d 35 04 24 00 00 	lea    0x2404(%rip),%rsi        # 42e8 <_IO_stdin_used+0x2e8>
    1ee4:	bf 01 00 00 00       	mov    $0x1,%edi
    1ee9:	b8 00 00 00 00       	mov    $0x0,%eax
    1eee:	e8 bd f4 ff ff       	callq  13b0 <__printf_chk@plt>
    1ef3:	bf 02 00 00 00       	mov    $0x2,%edi
    1ef8:	e8 29 06 00 00       	callq  2526 <fail>
    1efd:	bf 00 00 00 00       	mov    $0x0,%edi
    1f02:	e8 f9 f4 ff ff       	callq  1400 <exit@plt>
    1f07:	48 8d 35 b2 23 00 00 	lea    0x23b2(%rip),%rsi        # 42c0 <_IO_stdin_used+0x2c0>
    1f0e:	bf 01 00 00 00       	mov    $0x1,%edi
    1f13:	b8 00 00 00 00       	mov    $0x0,%eax
    1f18:	e8 93 f4 ff ff       	callq  13b0 <__printf_chk@plt>
    1f1d:	bf 02 00 00 00       	mov    $0x2,%edi
    1f22:	e8 2b 05 00 00       	callq  2452 <validate>
    1f27:	eb d4                	jmp    1efd <touch2+0x3e>

0000000000001f29 <hexmatch>:
    1f29:	f3 0f 1e fa          	endbr64 
    1f2d:	41 55                	push   %r13
    1f2f:	41 54                	push   %r12
    1f31:	55                   	push   %rbp
    1f32:	53                   	push   %rbx
    1f33:	48 81 ec 88 00 00 00 	sub    $0x88,%rsp
    1f3a:	89 fd                	mov    %edi,%ebp
    1f3c:	48 89 f3             	mov    %rsi,%rbx
    1f3f:	41 bc 28 00 00 00    	mov    $0x28,%r12d
    1f45:	64 49 8b 04 24       	mov    %fs:(%r12),%rax
    1f4a:	48 89 44 24 78       	mov    %rax,0x78(%rsp)
    1f4f:	31 c0                	xor    %eax,%eax
    1f51:	e8 2a f4 ff ff       	callq  1380 <random@plt>
    1f56:	48 89 c1             	mov    %rax,%rcx
    1f59:	48 ba 0b d7 a3 70 3d 	movabs $0xa3d70a3d70a3d70b,%rdx
    1f60:	0a d7 a3 
    1f63:	48 f7 ea             	imul   %rdx
    1f66:	48 01 ca             	add    %rcx,%rdx
    1f69:	48 c1 fa 06          	sar    $0x6,%rdx
    1f6d:	48 89 c8             	mov    %rcx,%rax
    1f70:	48 c1 f8 3f          	sar    $0x3f,%rax
    1f74:	48 29 c2             	sub    %rax,%rdx
    1f77:	48 8d 04 92          	lea    (%rdx,%rdx,4),%rax
    1f7b:	48 8d 04 80          	lea    (%rax,%rax,4),%rax
    1f7f:	48 c1 e0 02          	shl    $0x2,%rax
    1f83:	48 29 c1             	sub    %rax,%rcx
    1f86:	4c 8d 2c 0c          	lea    (%rsp,%rcx,1),%r13
    1f8a:	41 89 e8             	mov    %ebp,%r8d
    1f8d:	48 8d 0d 25 23 00 00 	lea    0x2325(%rip),%rcx        # 42b9 <_IO_stdin_used+0x2b9>
    1f94:	48 c7 c2 ff ff ff ff 	mov    $0xffffffffffffffff,%rdx
    1f9b:	be 01 00 00 00       	mov    $0x1,%esi
    1fa0:	4c 89 ef             	mov    %r13,%rdi
    1fa3:	b8 00 00 00 00       	mov    $0x0,%eax
    1fa8:	e8 93 f4 ff ff       	callq  1440 <__sprintf_chk@plt>
    1fad:	ba 09 00 00 00       	mov    $0x9,%edx
    1fb2:	4c 89 ee             	mov    %r13,%rsi
    1fb5:	48 89 df             	mov    %rbx,%rdi
    1fb8:	e8 c3 f2 ff ff       	callq  1280 <strncmp@plt>
    1fbd:	85 c0                	test   %eax,%eax
    1fbf:	0f 94 c0             	sete   %al
    1fc2:	48 8b 5c 24 78       	mov    0x78(%rsp),%rbx
    1fc7:	64 49 33 1c 24       	xor    %fs:(%r12),%rbx
    1fcc:	75 11                	jne    1fdf <hexmatch+0xb6>
    1fce:	0f b6 c0             	movzbl %al,%eax
    1fd1:	48 81 c4 88 00 00 00 	add    $0x88,%rsp
    1fd8:	5b                   	pop    %rbx
    1fd9:	5d                   	pop    %rbp
    1fda:	41 5c                	pop    %r12
    1fdc:	41 5d                	pop    %r13
    1fde:	c3                   	retq   
    1fdf:	e8 dc f2 ff ff       	callq  12c0 <__stack_chk_fail@plt>

0000000000001fe4 <touch3>:
    1fe4:	f3 0f 1e fa          	endbr64 
    1fe8:	53                   	push   %rbx
    1fe9:	48 89 fb             	mov    %rdi,%rbx
    1fec:	c7 05 ca 53 00 00 03 	movl   $0x3,0x53ca(%rip)        # 73c0 <vlevel>
    1ff3:	00 00 00 
    1ff6:	48 89 fe             	mov    %rdi,%rsi
    1ff9:	8b 3d c9 53 00 00    	mov    0x53c9(%rip),%edi        # 73c8 <cookie>
    1fff:	e8 25 ff ff ff       	callq  1f29 <hexmatch>
    2004:	85 c0                	test   %eax,%eax
    2006:	74 2d                	je     2035 <touch3+0x51>
    2008:	48 89 da             	mov    %rbx,%rdx
    200b:	48 8d 35 fe 22 00 00 	lea    0x22fe(%rip),%rsi        # 4310 <_IO_stdin_used+0x310>
    2012:	bf 01 00 00 00       	mov    $0x1,%edi
    2017:	b8 00 00 00 00       	mov    $0x0,%eax
    201c:	e8 8f f3 ff ff       	callq  13b0 <__printf_chk@plt>
    2021:	bf 03 00 00 00       	mov    $0x3,%edi
    2026:	e8 27 04 00 00       	callq  2452 <validate>
    202b:	bf 00 00 00 00       	mov    $0x0,%edi
    2030:	e8 cb f3 ff ff       	callq  1400 <exit@plt>
    2035:	48 89 da             	mov    %rbx,%rdx
    2038:	48 8d 35 f9 22 00 00 	lea    0x22f9(%rip),%rsi        # 4338 <_IO_stdin_used+0x338>
    203f:	bf 01 00 00 00       	mov    $0x1,%edi
    2044:	b8 00 00 00 00       	mov    $0x0,%eax
    2049:	e8 62 f3 ff ff       	callq  13b0 <__printf_chk@plt>
    204e:	bf 03 00 00 00       	mov    $0x3,%edi
    2053:	e8 ce 04 00 00       	callq  2526 <fail>
    2058:	eb d1                	jmp    202b <touch3+0x47>

000000000000205a <test>:
    205a:	f3 0f 1e fa          	endbr64 
    205e:	48 83 ec 08          	sub    $0x8,%rsp
    2062:	b8 00 00 00 00       	mov    $0x0,%eax
    2067:	e8 05 fe ff ff       	callq  1e71 <getbuf>
    206c:	89 c2                	mov    %eax,%edx
    206e:	48 8d 35 eb 22 00 00 	lea    0x22eb(%rip),%rsi        # 4360 <_IO_stdin_used+0x360>
    2075:	bf 01 00 00 00       	mov    $0x1,%edi
    207a:	b8 00 00 00 00       	mov    $0x0,%eax
    207f:	e8 2c f3 ff ff       	callq  13b0 <__printf_chk@plt>
    2084:	48 83 c4 08          	add    $0x8,%rsp
    2088:	c3                   	retq   

0000000000002089 <start_farm>:
    2089:	f3 0f 1e fa          	endbr64 
    208d:	b8 01 00 00 00       	mov    $0x1,%eax
    2092:	c3                   	retq   

0000000000002093 <setval_219>:
    2093:	f3 0f 1e fa          	endbr64 
    2097:	c7 07 58 90 90 c3    	movl   $0xc3909058,(%rdi)
    209d:	c3                   	retq   

000000000000209e <getval_404>:
    209e:	f3 0f 1e fa          	endbr64 
    20a2:	b8 48 89 c7 c3       	mov    $0xc3c78948,%eax
    20a7:	c3                   	retq   

00000000000020a8 <getval_172>:
    20a8:	f3 0f 1e fa          	endbr64 
    20ac:	b8 59 ea 58 90       	mov    $0x9058ea59,%eax
    20b1:	c3                   	retq   

00000000000020b2 <addval_240>:
    20b2:	f3 0f 1e fa          	endbr64 
    20b6:	8d 87 48 89 c7 92    	lea    -0x6d3876b8(%rdi),%eax
    20bc:	c3                   	retq   

00000000000020bd <setval_384>:
    20bd:	f3 0f 1e fa          	endbr64 
    20c1:	c7 07 22 d8 c3 ea    	movl   $0xeac3d822,(%rdi)
    20c7:	c3                   	retq   

00000000000020c8 <addval_175>:
    20c8:	f3 0f 1e fa          	endbr64 
    20cc:	8d 87 29 78 90 90    	lea    -0x6f6f87d7(%rdi),%eax
    20d2:	c3                   	retq   

00000000000020d3 <getval_254>:
    20d3:	f3 0f 1e fa          	endbr64 
    20d7:	b8 48 89 c7 92       	mov    $0x92c78948,%eax
    20dc:	c3                   	retq   

00000000000020dd <getval_222>:
    20dd:	f3 0f 1e fa          	endbr64 
    20e1:	b8 48 89 c7 c3       	mov    $0xc3c78948,%eax
    20e6:	c3                   	retq   

00000000000020e7 <mid_farm>:
    20e7:	f3 0f 1e fa          	endbr64 
    20eb:	b8 01 00 00 00       	mov    $0x1,%eax
    20f0:	c3                   	retq   

00000000000020f1 <add_xy>:
    20f1:	f3 0f 1e fa          	endbr64 
    20f5:	48 8d 04 37          	lea    (%rdi,%rsi,1),%rax
    20f9:	c3                   	retq   

00000000000020fa <setval_436>:
    20fa:	f3 0f 1e fa          	endbr64 
    20fe:	c7 07 b7 48 89 e0    	movl   $0xe08948b7,(%rdi)
    2104:	c3                   	retq   

0000000000002105 <addval_117>:
    2105:	f3 0f 1e fa          	endbr64 
    2109:	8d 87 89 ca 00 d2    	lea    -0x2dff3577(%rdi),%eax
    210f:	c3                   	retq   

0000000000002110 <addval_227>:
    2110:	f3 0f 1e fa          	endbr64 
    2114:	8d 87 88 c1 84 d2    	lea    -0x2d7b3e78(%rdi),%eax
    211a:	c3                   	retq   

000000000000211b <getval_289>:
    211b:	f3 0f 1e fa          	endbr64 
    211f:	b8 89 d6 38 db       	mov    $0xdb38d689,%eax
    2124:	c3                   	retq   

0000000000002125 <addval_177>:
    2125:	f3 0f 1e fa          	endbr64 
    2129:	8d 87 8b c1 84 d2    	lea    -0x2d7b3e75(%rdi),%eax
    212f:	c3                   	retq   

0000000000002130 <setval_329>:
    2130:	f3 0f 1e fa          	endbr64 
    2134:	c7 07 89 d6 78 c0    	movl   $0xc078d689,(%rdi)
    213a:	c3                   	retq   

000000000000213b <setval_274>:
    213b:	f3 0f 1e fa          	endbr64 
    213f:	c7 07 48 89 e0 94    	movl   $0x94e08948,(%rdi)
    2145:	c3                   	retq   

0000000000002146 <getval_314>:
    2146:	f3 0f 1e fa          	endbr64 
    214a:	b8 88 ca 90 90       	mov    $0x9090ca88,%eax
    214f:	c3                   	retq   

0000000000002150 <setval_423>:
    2150:	f3 0f 1e fa          	endbr64 
    2154:	c7 07 48 89 e0 c2    	movl   $0xc2e08948,(%rdi)
    215a:	c3                   	retq   

000000000000215b <addval_149>:
    215b:	f3 0f 1e fa          	endbr64 
    215f:	8d 87 89 c1 84 c0    	lea    -0x3f7b3e77(%rdi),%eax
    2165:	c3                   	retq   

0000000000002166 <setval_231>:
    2166:	f3 0f 1e fa          	endbr64 
    216a:	c7 07 61 88 ca c3    	movl   $0xc3ca8861,(%rdi)
    2170:	c3                   	retq   

0000000000002171 <getval_492>:
    2171:	f3 0f 1e fa          	endbr64 
    2175:	b8 48 89 e0 c2       	mov    $0xc2e08948,%eax
    217a:	c3                   	retq   

000000000000217b <setval_394>:
    217b:	f3 0f 1e fa          	endbr64 
    217f:	c7 07 89 d6 c4 db    	movl   $0xdbc4d689,(%rdi)
    2185:	c3                   	retq   

0000000000002186 <addval_122>:
    2186:	f3 0f 1e fa          	endbr64 
    218a:	8d 87 48 89 e0 91    	lea    -0x6e1f76b8(%rdi),%eax
    2190:	c3                   	retq   

0000000000002191 <getval_356>:
    2191:	f3 0f 1e fa          	endbr64 
    2195:	b8 89 c1 90 c7       	mov    $0xc790c189,%eax
    219a:	c3                   	retq   

000000000000219b <getval_218>:
    219b:	f3 0f 1e fa          	endbr64 
    219f:	b8 8b ca 20 c9       	mov    $0xc920ca8b,%eax
    21a4:	c3                   	retq   

00000000000021a5 <setval_156>:
    21a5:	f3 0f 1e fa          	endbr64 
    21a9:	c7 07 48 8d e0 c3    	movl   $0xc3e08d48,(%rdi)
    21af:	c3                   	retq   

00000000000021b0 <getval_415>:
    21b0:	f3 0f 1e fa          	endbr64 
    21b4:	b8 89 ca 60 d2       	mov    $0xd260ca89,%eax
    21b9:	c3                   	retq   

00000000000021ba <getval_157>:
    21ba:	f3 0f 1e fa          	endbr64 
    21be:	b8 a9 c1 20 c0       	mov    $0xc020c1a9,%eax
    21c3:	c3                   	retq   

00000000000021c4 <setval_354>:
    21c4:	f3 0f 1e fa          	endbr64 
    21c8:	c7 07 8b d6 c3 43    	movl   $0x43c3d68b,(%rdi)
    21ce:	c3                   	retq   

00000000000021cf <setval_339>:
    21cf:	f3 0f 1e fa          	endbr64 
    21d3:	c7 07 89 c1 90 90    	movl   $0x9090c189,(%rdi)
    21d9:	c3                   	retq   

00000000000021da <setval_374>:
    21da:	f3 0f 1e fa          	endbr64 
    21de:	c7 07 89 ca 28 c9    	movl   $0xc928ca89,(%rdi)
    21e4:	c3                   	retq   

00000000000021e5 <addval_318>:
    21e5:	f3 0f 1e fa          	endbr64 
    21e9:	8d 87 99 d6 84 d2    	lea    -0x2d7b2967(%rdi),%eax
    21ef:	c3                   	retq   

00000000000021f0 <getval_429>:
    21f0:	f3 0f 1e fa          	endbr64 
    21f4:	b8 48 89 e0 c3       	mov    $0xc3e08948,%eax
    21f9:	c3                   	retq   

00000000000021fa <getval_255>:
    21fa:	f3 0f 1e fa          	endbr64 
    21fe:	b8 89 ca 38 db       	mov    $0xdb38ca89,%eax
    2203:	c3                   	retq   

0000000000002204 <getval_225>:
    2204:	f3 0f 1e fa          	endbr64 
    2208:	b8 09 d6 c3 b3       	mov    $0xb3c3d609,%eax
    220d:	c3                   	retq   

000000000000220e <getval_485>:
    220e:	f3 0f 1e fa          	endbr64 
    2212:	b8 48 89 e0 c2       	mov    $0xc2e08948,%eax
    2217:	c3                   	retq   

0000000000002218 <getval_308>:
    2218:	f3 0f 1e fa          	endbr64 
    221c:	b8 89 d6 08 db       	mov    $0xdb08d689,%eax
    2221:	c3                   	retq   

0000000000002222 <addval_144>:
    2222:	f3 0f 1e fa          	endbr64 
    2226:	8d 87 89 ca 84 c9    	lea    -0x367b3577(%rdi),%eax
    222c:	c3                   	retq   

000000000000222d <addval_425>:
    222d:	f3 0f 1e fa          	endbr64 
    2231:	8d 87 99 c1 38 c9    	lea    -0x36c73e67(%rdi),%eax
    2237:	c3                   	retq   

0000000000002238 <getval_377>:
    2238:	f3 0f 1e fa          	endbr64 
    223c:	b8 7c 8b c1 90       	mov    $0x90c18b7c,%eax
    2241:	c3                   	retq   

0000000000002242 <getval_433>:
    2242:	f3 0f 1e fa          	endbr64 
    2246:	b8 98 09 d6 c3       	mov    $0xc3d60998,%eax
    224b:	c3                   	retq   

000000000000224c <end_farm>:
    224c:	f3 0f 1e fa          	endbr64 
    2250:	b8 01 00 00 00       	mov    $0x1,%eax
    2255:	c3                   	retq   

0000000000002256 <save_char>:
    2256:	8b 05 88 5d 00 00    	mov    0x5d88(%rip),%eax        # 7fe4 <gets_cnt>
    225c:	3d ff 03 00 00       	cmp    $0x3ff,%eax
    2261:	7f 4a                	jg     22ad <save_char+0x57>
    2263:	89 f9                	mov    %edi,%ecx
    2265:	c0 e9 04             	shr    $0x4,%cl
    2268:	8d 14 40             	lea    (%rax,%rax,2),%edx
    226b:	4c 8d 05 5e 23 00 00 	lea    0x235e(%rip),%r8        # 45d0 <trans_char>
    2272:	83 e1 0f             	and    $0xf,%ecx
    2275:	45 0f b6 0c 08       	movzbl (%r8,%rcx,1),%r9d
    227a:	48 8d 0d 5f 51 00 00 	lea    0x515f(%rip),%rcx        # 73e0 <gets_buf>
    2281:	48 63 f2             	movslq %edx,%rsi
    2284:	44 88 0c 31          	mov    %r9b,(%rcx,%rsi,1)
    2288:	8d 72 01             	lea    0x1(%rdx),%esi
    228b:	83 e7 0f             	and    $0xf,%edi
    228e:	41 0f b6 3c 38       	movzbl (%r8,%rdi,1),%edi
    2293:	48 63 f6             	movslq %esi,%rsi
    2296:	40 88 3c 31          	mov    %dil,(%rcx,%rsi,1)
    229a:	83 c2 02             	add    $0x2,%edx
    229d:	48 63 d2             	movslq %edx,%rdx
    22a0:	c6 04 11 20          	movb   $0x20,(%rcx,%rdx,1)
    22a4:	83 c0 01             	add    $0x1,%eax
    22a7:	89 05 37 5d 00 00    	mov    %eax,0x5d37(%rip)        # 7fe4 <gets_cnt>
    22ad:	c3                   	retq   

00000000000022ae <save_term>:
    22ae:	8b 05 30 5d 00 00    	mov    0x5d30(%rip),%eax        # 7fe4 <gets_cnt>
    22b4:	8d 04 40             	lea    (%rax,%rax,2),%eax
    22b7:	48 98                	cltq   
    22b9:	48 8d 15 20 51 00 00 	lea    0x5120(%rip),%rdx        # 73e0 <gets_buf>
    22c0:	c6 04 02 00          	movb   $0x0,(%rdx,%rax,1)
    22c4:	c3                   	retq   

00000000000022c5 <check_fail>:
    22c5:	f3 0f 1e fa          	endbr64 
    22c9:	50                   	push   %rax
    22ca:	58                   	pop    %rax
    22cb:	48 83 ec 08          	sub    $0x8,%rsp
    22cf:	0f be 15 12 5d 00 00 	movsbl 0x5d12(%rip),%edx        # 7fe8 <target_prefix>
    22d6:	4c 8d 05 03 51 00 00 	lea    0x5103(%rip),%r8        # 73e0 <gets_buf>
    22dd:	8b 0d d9 50 00 00    	mov    0x50d9(%rip),%ecx        # 73bc <check_level>
    22e3:	48 8d 35 99 20 00 00 	lea    0x2099(%rip),%rsi        # 4383 <_IO_stdin_used+0x383>
    22ea:	bf 01 00 00 00       	mov    $0x1,%edi
    22ef:	b8 00 00 00 00       	mov    $0x0,%eax
    22f4:	e8 b7 f0 ff ff       	callq  13b0 <__printf_chk@plt>
    22f9:	bf 01 00 00 00       	mov    $0x1,%edi
    22fe:	e8 fd f0 ff ff       	callq  1400 <exit@plt>

0000000000002303 <Gets>:
    2303:	f3 0f 1e fa          	endbr64 
    2307:	41 54                	push   %r12
    2309:	55                   	push   %rbp
    230a:	53                   	push   %rbx
    230b:	49 89 fc             	mov    %rdi,%r12
    230e:	c7 05 cc 5c 00 00 00 	movl   $0x0,0x5ccc(%rip)        # 7fe4 <gets_cnt>
    2315:	00 00 00 
    2318:	48 89 fb             	mov    %rdi,%rbx
    231b:	48 8b 3d 8e 50 00 00 	mov    0x508e(%rip),%rdi        # 73b0 <infile>
    2322:	e8 09 f1 ff ff       	callq  1430 <getc@plt>
    2327:	83 f8 ff             	cmp    $0xffffffff,%eax
    232a:	74 18                	je     2344 <Gets+0x41>
    232c:	83 f8 0a             	cmp    $0xa,%eax
    232f:	74 13                	je     2344 <Gets+0x41>
    2331:	48 8d 6b 01          	lea    0x1(%rbx),%rbp
    2335:	88 03                	mov    %al,(%rbx)
    2337:	0f b6 f8             	movzbl %al,%edi
    233a:	e8 17 ff ff ff       	callq  2256 <save_char>
    233f:	48 89 eb             	mov    %rbp,%rbx
    2342:	eb d7                	jmp    231b <Gets+0x18>
    2344:	c6 03 00             	movb   $0x0,(%rbx)
    2347:	b8 00 00 00 00       	mov    $0x0,%eax
    234c:	e8 5d ff ff ff       	callq  22ae <save_term>
    2351:	4c 89 e0             	mov    %r12,%rax
    2354:	5b                   	pop    %rbx
    2355:	5d                   	pop    %rbp
    2356:	41 5c                	pop    %r12
    2358:	c3                   	retq   

0000000000002359 <notify_server>:
    2359:	f3 0f 1e fa          	endbr64 
    235d:	53                   	push   %rbx
    235e:	48 81 ec 00 10 00 00 	sub    $0x1000,%rsp
    2365:	48 83 0c 24 00       	orq    $0x0,(%rsp)
    236a:	48 81 ec 00 10 00 00 	sub    $0x1000,%rsp
    2371:	48 83 0c 24 00       	orq    $0x0,(%rsp)
    2376:	48 83 ec 10          	sub    $0x10,%rsp
    237a:	64 48 8b 04 25 28 00 	mov    %fs:0x28,%rax
    2381:	00 00 
    2383:	48 89 84 24 08 20 00 	mov    %rax,0x2008(%rsp)
    238a:	00 
    238b:	31 c0                	xor    %eax,%eax
    238d:	83 3d 38 50 00 00 00 	cmpl   $0x0,0x5038(%rip)        # 73cc <is_checker>
    2394:	0f 85 8e 00 00 00    	jne    2428 <notify_server+0xcf>
    239a:	81 3d 40 5c 00 00 9c 	cmpl   $0x1f9c,0x5c40(%rip)        # 7fe4 <gets_cnt>
    23a1:	1f 00 00 
    23a4:	7f 18                	jg     23be <notify_server+0x65>
    23a6:	0f be 05 3b 5c 00 00 	movsbl 0x5c3b(%rip),%eax        # 7fe8 <target_prefix>
    23ad:	83 3d 04 50 00 00 00 	cmpl   $0x0,0x5004(%rip)        # 73b8 <notify>
    23b4:	74 23                	je     23d9 <notify_server+0x80>
    23b6:	8b 15 08 50 00 00    	mov    0x5008(%rip),%edx        # 73c4 <authkey>
    23bc:	eb 20                	jmp    23de <notify_server+0x85>
    23be:	48 8d 35 a3 20 00 00 	lea    0x20a3(%rip),%rsi        # 4468 <_IO_stdin_used+0x468>
    23c5:	bf 01 00 00 00       	mov    $0x1,%edi
    23ca:	e8 e1 ef ff ff       	callq  13b0 <__printf_chk@plt>
    23cf:	bf 01 00 00 00       	mov    $0x1,%edi
    23d4:	e8 27 f0 ff ff       	callq  1400 <exit@plt>
    23d9:	ba ff ff ff ff       	mov    $0xffffffff,%edx
    23de:	85 ff                	test   %edi,%edi
    23e0:	74 62                	je     2444 <notify_server+0xeb>
    23e2:	48 8d 1d b5 1f 00 00 	lea    0x1fb5(%rip),%rbx        # 439e <_IO_stdin_used+0x39e>
    23e9:	48 89 e7             	mov    %rsp,%rdi
    23ec:	48 8d 0d ed 4f 00 00 	lea    0x4fed(%rip),%rcx        # 73e0 <gets_buf>
    23f3:	51                   	push   %rcx
    23f4:	56                   	push   %rsi
    23f5:	50                   	push   %rax
    23f6:	52                   	push   %rdx
    23f7:	49 89 d9             	mov    %rbx,%r9
    23fa:	44 8b 05 0f 4c 00 00 	mov    0x4c0f(%rip),%r8d        # 7010 <target_id>
    2401:	48 8d 0d 9b 1f 00 00 	lea    0x1f9b(%rip),%rcx        # 43a3 <_IO_stdin_used+0x3a3>
    2408:	ba 00 20 00 00       	mov    $0x2000,%edx
    240d:	be 01 00 00 00       	mov    $0x1,%esi
    2412:	b8 00 00 00 00       	mov    $0x0,%eax
    2417:	e8 24 f0 ff ff       	callq  1440 <__sprintf_chk@plt>
    241c:	48 83 c4 20          	add    $0x20,%rsp
    2420:	48 89 df             	mov    %rbx,%rdi
    2423:	e8 78 ee ff ff       	callq  12a0 <puts@plt>
    2428:	48 8b 84 24 08 20 00 	mov    0x2008(%rsp),%rax
    242f:	00 
    2430:	64 48 33 04 25 28 00 	xor    %fs:0x28,%rax
    2437:	00 00 
    2439:	75 12                	jne    244d <notify_server+0xf4>
    243b:	48 81 c4 10 20 00 00 	add    $0x2010,%rsp
    2442:	5b                   	pop    %rbx
    2443:	c3                   	retq   
    2444:	48 8d 1d 4e 1f 00 00 	lea    0x1f4e(%rip),%rbx        # 4399 <_IO_stdin_used+0x399>
    244b:	eb 9c                	jmp    23e9 <notify_server+0x90>
    244d:	e8 6e ee ff ff       	callq  12c0 <__stack_chk_fail@plt>

0000000000002452 <validate>:
    2452:	f3 0f 1e fa          	endbr64 
    2456:	53                   	push   %rbx
    2457:	89 fb                	mov    %edi,%ebx
    2459:	83 3d 6c 4f 00 00 00 	cmpl   $0x0,0x4f6c(%rip)        # 73cc <is_checker>
    2460:	74 72                	je     24d4 <validate+0x82>
    2462:	39 3d 58 4f 00 00    	cmp    %edi,0x4f58(%rip)        # 73c0 <vlevel>
    2468:	75 32                	jne    249c <validate+0x4a>
    246a:	8b 15 4c 4f 00 00    	mov    0x4f4c(%rip),%edx        # 73bc <check_level>
    2470:	39 fa                	cmp    %edi,%edx
    2472:	75 3e                	jne    24b2 <validate+0x60>
    2474:	0f be 15 6d 5b 00 00 	movsbl 0x5b6d(%rip),%edx        # 7fe8 <target_prefix>
    247b:	4c 8d 05 5e 4f 00 00 	lea    0x4f5e(%rip),%r8        # 73e0 <gets_buf>
    2482:	89 f9                	mov    %edi,%ecx
    2484:	48 8d 35 52 1f 00 00 	lea    0x1f52(%rip),%rsi        # 43dd <_IO_stdin_used+0x3dd>
    248b:	bf 01 00 00 00       	mov    $0x1,%edi
    2490:	b8 00 00 00 00       	mov    $0x0,%eax
    2495:	e8 16 ef ff ff       	callq  13b0 <__printf_chk@plt>
    249a:	5b                   	pop    %rbx
    249b:	c3                   	retq   
    249c:	48 8d 3d 1c 1f 00 00 	lea    0x1f1c(%rip),%rdi        # 43bf <_IO_stdin_used+0x3bf>
    24a3:	e8 f8 ed ff ff       	callq  12a0 <puts@plt>
    24a8:	b8 00 00 00 00       	mov    $0x0,%eax
    24ad:	e8 13 fe ff ff       	callq  22c5 <check_fail>
    24b2:	89 f9                	mov    %edi,%ecx
    24b4:	48 8d 35 dd 1f 00 00 	lea    0x1fdd(%rip),%rsi        # 4498 <_IO_stdin_used+0x498>
    24bb:	bf 01 00 00 00       	mov    $0x1,%edi
    24c0:	b8 00 00 00 00       	mov    $0x0,%eax
    24c5:	e8 e6 ee ff ff       	callq  13b0 <__printf_chk@plt>
    24ca:	b8 00 00 00 00       	mov    $0x0,%eax
    24cf:	e8 f1 fd ff ff       	callq  22c5 <check_fail>
    24d4:	39 3d e6 4e 00 00    	cmp    %edi,0x4ee6(%rip)        # 73c0 <vlevel>
    24da:	74 1a                	je     24f6 <validate+0xa4>
    24dc:	48 8d 3d dc 1e 00 00 	lea    0x1edc(%rip),%rdi        # 43bf <_IO_stdin_used+0x3bf>
    24e3:	e8 b8 ed ff ff       	callq  12a0 <puts@plt>
    24e8:	89 de                	mov    %ebx,%esi
    24ea:	bf 00 00 00 00       	mov    $0x0,%edi
    24ef:	e8 65 fe ff ff       	callq  2359 <notify_server>
    24f4:	eb a4                	jmp    249a <validate+0x48>
    24f6:	0f be 0d eb 5a 00 00 	movsbl 0x5aeb(%rip),%ecx        # 7fe8 <target_prefix>
    24fd:	89 fa                	mov    %edi,%edx
    24ff:	48 8d 35 ba 1f 00 00 	lea    0x1fba(%rip),%rsi        # 44c0 <_IO_stdin_used+0x4c0>
    2506:	bf 01 00 00 00       	mov    $0x1,%edi
    250b:	b8 00 00 00 00       	mov    $0x0,%eax
    2510:	e8 9b ee ff ff       	callq  13b0 <__printf_chk@plt>
    2515:	89 de                	mov    %ebx,%esi
    2517:	bf 01 00 00 00       	mov    $0x1,%edi
    251c:	e8 38 fe ff ff       	callq  2359 <notify_server>
    2521:	e9 74 ff ff ff       	jmpq   249a <validate+0x48>

0000000000002526 <fail>:
    2526:	f3 0f 1e fa          	endbr64 
    252a:	48 83 ec 08          	sub    $0x8,%rsp
    252e:	83 3d 97 4e 00 00 00 	cmpl   $0x0,0x4e97(%rip)        # 73cc <is_checker>
    2535:	75 11                	jne    2548 <fail+0x22>
    2537:	89 fe                	mov    %edi,%esi
    2539:	bf 00 00 00 00       	mov    $0x0,%edi
    253e:	e8 16 fe ff ff       	callq  2359 <notify_server>
    2543:	48 83 c4 08          	add    $0x8,%rsp
    2547:	c3                   	retq   
    2548:	b8 00 00 00 00       	mov    $0x0,%eax
    254d:	e8 73 fd ff ff       	callq  22c5 <check_fail>

0000000000002552 <bushandler>:
    2552:	f3 0f 1e fa          	endbr64 
    2556:	50                   	push   %rax
    2557:	58                   	pop    %rax
    2558:	48 83 ec 08          	sub    $0x8,%rsp
    255c:	83 3d 69 4e 00 00 00 	cmpl   $0x0,0x4e69(%rip)        # 73cc <is_checker>
    2563:	74 16                	je     257b <bushandler+0x29>
    2565:	48 8d 3d 86 1e 00 00 	lea    0x1e86(%rip),%rdi        # 43f2 <_IO_stdin_used+0x3f2>
    256c:	e8 2f ed ff ff       	callq  12a0 <puts@plt>
    2571:	b8 00 00 00 00       	mov    $0x0,%eax
    2576:	e8 4a fd ff ff       	callq  22c5 <check_fail>
    257b:	48 8d 3d 76 1f 00 00 	lea    0x1f76(%rip),%rdi        # 44f8 <_IO_stdin_used+0x4f8>
    2582:	e8 19 ed ff ff       	callq  12a0 <puts@plt>
    2587:	48 8d 3d 6e 1e 00 00 	lea    0x1e6e(%rip),%rdi        # 43fc <_IO_stdin_used+0x3fc>
    258e:	e8 0d ed ff ff       	callq  12a0 <puts@plt>
    2593:	be 00 00 00 00       	mov    $0x0,%esi
    2598:	bf 00 00 00 00       	mov    $0x0,%edi
    259d:	e8 b7 fd ff ff       	callq  2359 <notify_server>
    25a2:	bf 01 00 00 00       	mov    $0x1,%edi
    25a7:	e8 54 ee ff ff       	callq  1400 <exit@plt>

00000000000025ac <seghandler>:
    25ac:	f3 0f 1e fa          	endbr64 
    25b0:	50                   	push   %rax
    25b1:	58                   	pop    %rax
    25b2:	48 83 ec 08          	sub    $0x8,%rsp
    25b6:	83 3d 0f 4e 00 00 00 	cmpl   $0x0,0x4e0f(%rip)        # 73cc <is_checker>
    25bd:	74 16                	je     25d5 <seghandler+0x29>
    25bf:	48 8d 3d 4c 1e 00 00 	lea    0x1e4c(%rip),%rdi        # 4412 <_IO_stdin_used+0x412>
    25c6:	e8 d5 ec ff ff       	callq  12a0 <puts@plt>
    25cb:	b8 00 00 00 00       	mov    $0x0,%eax
    25d0:	e8 f0 fc ff ff       	callq  22c5 <check_fail>
    25d5:	48 8d 3d 3c 1f 00 00 	lea    0x1f3c(%rip),%rdi        # 4518 <_IO_stdin_used+0x518>
    25dc:	e8 bf ec ff ff       	callq  12a0 <puts@plt>
    25e1:	48 8d 3d 14 1e 00 00 	lea    0x1e14(%rip),%rdi        # 43fc <_IO_stdin_used+0x3fc>
    25e8:	e8 b3 ec ff ff       	callq  12a0 <puts@plt>
    25ed:	be 00 00 00 00       	mov    $0x0,%esi
    25f2:	bf 00 00 00 00       	mov    $0x0,%edi
    25f7:	e8 5d fd ff ff       	callq  2359 <notify_server>
    25fc:	bf 01 00 00 00       	mov    $0x1,%edi
    2601:	e8 fa ed ff ff       	callq  1400 <exit@plt>

0000000000002606 <illegalhandler>:
    2606:	f3 0f 1e fa          	endbr64 
    260a:	50                   	push   %rax
    260b:	58                   	pop    %rax
    260c:	48 83 ec 08          	sub    $0x8,%rsp
    2610:	83 3d b5 4d 00 00 00 	cmpl   $0x0,0x4db5(%rip)        # 73cc <is_checker>
    2617:	74 16                	je     262f <illegalhandler+0x29>
    2619:	48 8d 3d 05 1e 00 00 	lea    0x1e05(%rip),%rdi        # 4425 <_IO_stdin_used+0x425>
    2620:	e8 7b ec ff ff       	callq  12a0 <puts@plt>
    2625:	b8 00 00 00 00       	mov    $0x0,%eax
    262a:	e8 96 fc ff ff       	callq  22c5 <check_fail>
    262f:	48 8d 3d 0a 1f 00 00 	lea    0x1f0a(%rip),%rdi        # 4540 <_IO_stdin_used+0x540>
    2636:	e8 65 ec ff ff       	callq  12a0 <puts@plt>
    263b:	48 8d 3d ba 1d 00 00 	lea    0x1dba(%rip),%rdi        # 43fc <_IO_stdin_used+0x3fc>
    2642:	e8 59 ec ff ff       	callq  12a0 <puts@plt>
    2647:	be 00 00 00 00       	mov    $0x0,%esi
    264c:	bf 00 00 00 00       	mov    $0x0,%edi
    2651:	e8 03 fd ff ff       	callq  2359 <notify_server>
    2656:	bf 01 00 00 00       	mov    $0x1,%edi
    265b:	e8 a0 ed ff ff       	callq  1400 <exit@plt>

0000000000002660 <sigalrmhandler>:
    2660:	f3 0f 1e fa          	endbr64 
    2664:	50                   	push   %rax
    2665:	58                   	pop    %rax
    2666:	48 83 ec 08          	sub    $0x8,%rsp
    266a:	83 3d 5b 4d 00 00 00 	cmpl   $0x0,0x4d5b(%rip)        # 73cc <is_checker>
    2671:	74 16                	je     2689 <sigalrmhandler+0x29>
    2673:	48 8d 3d bf 1d 00 00 	lea    0x1dbf(%rip),%rdi        # 4439 <_IO_stdin_used+0x439>
    267a:	e8 21 ec ff ff       	callq  12a0 <puts@plt>
    267f:	b8 00 00 00 00       	mov    $0x0,%eax
    2684:	e8 3c fc ff ff       	callq  22c5 <check_fail>
    2689:	ba 05 00 00 00       	mov    $0x5,%edx
    268e:	48 8d 35 db 1e 00 00 	lea    0x1edb(%rip),%rsi        # 4570 <_IO_stdin_used+0x570>
    2695:	bf 01 00 00 00       	mov    $0x1,%edi
    269a:	b8 00 00 00 00       	mov    $0x0,%eax
    269f:	e8 0c ed ff ff       	callq  13b0 <__printf_chk@plt>
    26a4:	be 00 00 00 00       	mov    $0x0,%esi
    26a9:	bf 00 00 00 00       	mov    $0x0,%edi
    26ae:	e8 a6 fc ff ff       	callq  2359 <notify_server>
    26b3:	bf 01 00 00 00       	mov    $0x1,%edi
    26b8:	e8 43 ed ff ff       	callq  1400 <exit@plt>

00000000000026bd <launch>:
    26bd:	f3 0f 1e fa          	endbr64 
    26c1:	55                   	push   %rbp
    26c2:	48 89 e5             	mov    %rsp,%rbp
    26c5:	48 83 ec 10          	sub    $0x10,%rsp
    26c9:	48 89 fa             	mov    %rdi,%rdx
    26cc:	64 48 8b 04 25 28 00 	mov    %fs:0x28,%rax
    26d3:	00 00 
    26d5:	48 89 45 f8          	mov    %rax,-0x8(%rbp)
    26d9:	31 c0                	xor    %eax,%eax
    26db:	48 8d 47 17          	lea    0x17(%rdi),%rax
    26df:	48 89 c1             	mov    %rax,%rcx
    26e2:	48 83 e1 f0          	and    $0xfffffffffffffff0,%rcx
    26e6:	48 25 00 f0 ff ff    	and    $0xfffffffffffff000,%rax
    26ec:	48 89 e6             	mov    %rsp,%rsi
    26ef:	48 29 c6             	sub    %rax,%rsi
    26f2:	48 89 f0             	mov    %rsi,%rax
    26f5:	48 39 c4             	cmp    %rax,%rsp
    26f8:	74 12                	je     270c <launch+0x4f>
    26fa:	48 81 ec 00 10 00 00 	sub    $0x1000,%rsp
    2701:	48 83 8c 24 f8 0f 00 	orq    $0x0,0xff8(%rsp)
    2708:	00 00 
    270a:	eb e9                	jmp    26f5 <launch+0x38>
    270c:	48 89 c8             	mov    %rcx,%rax
    270f:	25 ff 0f 00 00       	and    $0xfff,%eax
    2714:	48 29 c4             	sub    %rax,%rsp
    2717:	48 85 c0             	test   %rax,%rax
    271a:	74 06                	je     2722 <launch+0x65>
    271c:	48 83 4c 04 f8 00    	orq    $0x0,-0x8(%rsp,%rax,1)
    2722:	48 8d 7c 24 0f       	lea    0xf(%rsp),%rdi
    2727:	48 83 e7 f0          	and    $0xfffffffffffffff0,%rdi
    272b:	be f4 00 00 00       	mov    $0xf4,%esi
    2730:	e8 ab eb ff ff       	callq  12e0 <memset@plt>
    2735:	48 8b 05 04 49 00 00 	mov    0x4904(%rip),%rax        # 7040 <stdin@@GLIBC_2.2.5>
    273c:	48 39 05 6d 4c 00 00 	cmp    %rax,0x4c6d(%rip)        # 73b0 <infile>
    2743:	74 3a                	je     277f <launch+0xc2>
    2745:	c7 05 71 4c 00 00 00 	movl   $0x0,0x4c71(%rip)        # 73c0 <vlevel>
    274c:	00 00 00 
    274f:	b8 00 00 00 00       	mov    $0x0,%eax
    2754:	e8 01 f9 ff ff       	callq  205a <test>
    2759:	83 3d 6c 4c 00 00 00 	cmpl   $0x0,0x4c6c(%rip)        # 73cc <is_checker>
    2760:	75 35                	jne    2797 <launch+0xda>
    2762:	48 8d 3d f0 1c 00 00 	lea    0x1cf0(%rip),%rdi        # 4459 <_IO_stdin_used+0x459>
    2769:	e8 32 eb ff ff       	callq  12a0 <puts@plt>
    276e:	48 8b 45 f8          	mov    -0x8(%rbp),%rax
    2772:	64 48 33 04 25 28 00 	xor    %fs:0x28,%rax
    2779:	00 00 
    277b:	75 30                	jne    27ad <launch+0xf0>
    277d:	c9                   	leaveq 
    277e:	c3                   	retq   
    277f:	48 8d 35 bb 1c 00 00 	lea    0x1cbb(%rip),%rsi        # 4441 <_IO_stdin_used+0x441>
    2786:	bf 01 00 00 00       	mov    $0x1,%edi
    278b:	b8 00 00 00 00       	mov    $0x0,%eax
    2790:	e8 1b ec ff ff       	callq  13b0 <__printf_chk@plt>
    2795:	eb ae                	jmp    2745 <launch+0x88>
    2797:	48 8d 3d b0 1c 00 00 	lea    0x1cb0(%rip),%rdi        # 444e <_IO_stdin_used+0x44e>
    279e:	e8 fd ea ff ff       	callq  12a0 <puts@plt>
    27a3:	b8 00 00 00 00       	mov    $0x0,%eax
    27a8:	e8 18 fb ff ff       	callq  22c5 <check_fail>
    27ad:	e8 0e eb ff ff       	callq  12c0 <__stack_chk_fail@plt>

00000000000027b2 <stable_launch>:
    27b2:	f3 0f 1e fa          	endbr64 
    27b6:	53                   	push   %rbx
    27b7:	48 89 3d ea 4b 00 00 	mov    %rdi,0x4bea(%rip)        # 73a8 <global_offset>
    27be:	41 b9 00 00 00 00    	mov    $0x0,%r9d
    27c4:	41 b8 00 00 00 00    	mov    $0x0,%r8d
    27ca:	b9 32 01 00 00       	mov    $0x132,%ecx
    27cf:	ba 07 00 00 00       	mov    $0x7,%edx
    27d4:	be 00 00 10 00       	mov    $0x100000,%esi
    27d9:	bf 00 60 58 55       	mov    $0x55586000,%edi
    27de:	e8 ed ea ff ff       	callq  12d0 <mmap@plt>
    27e3:	48 89 c3             	mov    %rax,%rbx
    27e6:	48 3d 00 60 58 55    	cmp    $0x55586000,%rax
    27ec:	75 43                	jne    2831 <stable_launch+0x7f>
    27ee:	48 8d 90 f8 ff 0f 00 	lea    0xffff8(%rax),%rdx
    27f5:	48 89 15 f4 57 00 00 	mov    %rdx,0x57f4(%rip)        # 7ff0 <stack_top>
    27fc:	48 89 e0             	mov    %rsp,%rax
    27ff:	48 89 d4             	mov    %rdx,%rsp
    2802:	48 89 c2             	mov    %rax,%rdx
    2805:	48 89 15 94 4b 00 00 	mov    %rdx,0x4b94(%rip)        # 73a0 <global_save_stack>
    280c:	48 8b 3d 95 4b 00 00 	mov    0x4b95(%rip),%rdi        # 73a8 <global_offset>
    2813:	e8 a5 fe ff ff       	callq  26bd <launch>
    2818:	48 8b 05 81 4b 00 00 	mov    0x4b81(%rip),%rax        # 73a0 <global_save_stack>
    281f:	48 89 c4             	mov    %rax,%rsp
    2822:	be 00 00 10 00       	mov    $0x100000,%esi
    2827:	48 89 df             	mov    %rbx,%rdi
    282a:	e8 71 eb ff ff       	callq  13a0 <munmap@plt>
    282f:	5b                   	pop    %rbx
    2830:	c3                   	retq   
    2831:	be 00 00 10 00       	mov    $0x100000,%esi
    2836:	48 89 c7             	mov    %rax,%rdi
    2839:	e8 62 eb ff ff       	callq  13a0 <munmap@plt>
    283e:	b9 00 60 58 55       	mov    $0x55586000,%ecx
    2843:	48 8d 15 5e 1d 00 00 	lea    0x1d5e(%rip),%rdx        # 45a8 <_IO_stdin_used+0x5a8>
    284a:	be 01 00 00 00       	mov    $0x1,%esi
    284f:	48 8b 3d 0a 48 00 00 	mov    0x480a(%rip),%rdi        # 7060 <stderr@@GLIBC_2.2.5>
    2856:	b8 00 00 00 00       	mov    $0x0,%eax
    285b:	e8 c0 eb ff ff       	callq  1420 <__fprintf_chk@plt>
    2860:	bf 01 00 00 00       	mov    $0x1,%edi
    2865:	e8 96 eb ff ff       	callq  1400 <exit@plt>

000000000000286a <rio_readinitb>:
    286a:	89 37                	mov    %esi,(%rdi)
    286c:	c7 47 04 00 00 00 00 	movl   $0x0,0x4(%rdi)
    2873:	48 8d 47 10          	lea    0x10(%rdi),%rax
    2877:	48 89 47 08          	mov    %rax,0x8(%rdi)
    287b:	c3                   	retq   

000000000000287c <sigalrm_handler>:
    287c:	f3 0f 1e fa          	endbr64 
    2880:	50                   	push   %rax
    2881:	58                   	pop    %rax
    2882:	48 83 ec 08          	sub    $0x8,%rsp
    2886:	b9 00 00 00 00       	mov    $0x0,%ecx
    288b:	48 8d 15 4e 1d 00 00 	lea    0x1d4e(%rip),%rdx        # 45e0 <trans_char+0x10>
    2892:	be 01 00 00 00       	mov    $0x1,%esi
    2897:	48 8b 3d c2 47 00 00 	mov    0x47c2(%rip),%rdi        # 7060 <stderr@@GLIBC_2.2.5>
    289e:	b8 00 00 00 00       	mov    $0x0,%eax
    28a3:	e8 78 eb ff ff       	callq  1420 <__fprintf_chk@plt>
    28a8:	bf 01 00 00 00       	mov    $0x1,%edi
    28ad:	e8 4e eb ff ff       	callq  1400 <exit@plt>

00000000000028b2 <rio_writen>:
    28b2:	41 55                	push   %r13
    28b4:	41 54                	push   %r12
    28b6:	55                   	push   %rbp
    28b7:	53                   	push   %rbx
    28b8:	48 83 ec 08          	sub    $0x8,%rsp
    28bc:	41 89 fc             	mov    %edi,%r12d
    28bf:	48 89 f5             	mov    %rsi,%rbp
    28c2:	49 89 d5             	mov    %rdx,%r13
    28c5:	48 89 d3             	mov    %rdx,%rbx
    28c8:	eb 06                	jmp    28d0 <rio_writen+0x1e>
    28ca:	48 29 c3             	sub    %rax,%rbx
    28cd:	48 01 c5             	add    %rax,%rbp
    28d0:	48 85 db             	test   %rbx,%rbx
    28d3:	74 24                	je     28f9 <rio_writen+0x47>
    28d5:	48 89 da             	mov    %rbx,%rdx
    28d8:	48 89 ee             	mov    %rbp,%rsi
    28db:	44 89 e7             	mov    %r12d,%edi
    28de:	e8 cd e9 ff ff       	callq  12b0 <write@plt>
    28e3:	48 85 c0             	test   %rax,%rax
    28e6:	7f e2                	jg     28ca <rio_writen+0x18>
    28e8:	e8 73 e9 ff ff       	callq  1260 <__errno_location@plt>
    28ed:	83 38 04             	cmpl   $0x4,(%rax)
    28f0:	75 15                	jne    2907 <rio_writen+0x55>
    28f2:	b8 00 00 00 00       	mov    $0x0,%eax
    28f7:	eb d1                	jmp    28ca <rio_writen+0x18>
    28f9:	4c 89 e8             	mov    %r13,%rax
    28fc:	48 83 c4 08          	add    $0x8,%rsp
    2900:	5b                   	pop    %rbx
    2901:	5d                   	pop    %rbp
    2902:	41 5c                	pop    %r12
    2904:	41 5d                	pop    %r13
    2906:	c3                   	retq   
    2907:	48 c7 c0 ff ff ff ff 	mov    $0xffffffffffffffff,%rax
    290e:	eb ec                	jmp    28fc <rio_writen+0x4a>

0000000000002910 <rio_read>:
    2910:	41 55                	push   %r13
    2912:	41 54                	push   %r12
    2914:	55                   	push   %rbp
    2915:	53                   	push   %rbx
    2916:	48 83 ec 08          	sub    $0x8,%rsp
    291a:	48 89 fb             	mov    %rdi,%rbx
    291d:	49 89 f5             	mov    %rsi,%r13
    2920:	49 89 d4             	mov    %rdx,%r12
    2923:	eb 17                	jmp    293c <rio_read+0x2c>
    2925:	e8 36 e9 ff ff       	callq  1260 <__errno_location@plt>
    292a:	83 38 04             	cmpl   $0x4,(%rax)
    292d:	74 0d                	je     293c <rio_read+0x2c>
    292f:	48 c7 c0 ff ff ff ff 	mov    $0xffffffffffffffff,%rax
    2936:	eb 54                	jmp    298c <rio_read+0x7c>
    2938:	48 89 6b 08          	mov    %rbp,0x8(%rbx)
    293c:	8b 6b 04             	mov    0x4(%rbx),%ebp
    293f:	85 ed                	test   %ebp,%ebp
    2941:	7f 23                	jg     2966 <rio_read+0x56>
    2943:	48 8d 6b 10          	lea    0x10(%rbx),%rbp
    2947:	8b 3b                	mov    (%rbx),%edi
    2949:	ba 00 20 00 00       	mov    $0x2000,%edx
    294e:	48 89 ee             	mov    %rbp,%rsi
    2951:	e8 ba e9 ff ff       	callq  1310 <read@plt>
    2956:	89 43 04             	mov    %eax,0x4(%rbx)
    2959:	85 c0                	test   %eax,%eax
    295b:	78 c8                	js     2925 <rio_read+0x15>
    295d:	75 d9                	jne    2938 <rio_read+0x28>
    295f:	b8 00 00 00 00       	mov    $0x0,%eax
    2964:	eb 26                	jmp    298c <rio_read+0x7c>
    2966:	89 e8                	mov    %ebp,%eax
    2968:	4c 39 e0             	cmp    %r12,%rax
    296b:	72 03                	jb     2970 <rio_read+0x60>
    296d:	44 89 e5             	mov    %r12d,%ebp
    2970:	4c 63 e5             	movslq %ebp,%r12
    2973:	48 8b 73 08          	mov    0x8(%rbx),%rsi
    2977:	4c 89 e2             	mov    %r12,%rdx
    297a:	4c 89 ef             	mov    %r13,%rdi
    297d:	e8 de e9 ff ff       	callq  1360 <memcpy@plt>
    2982:	4c 01 63 08          	add    %r12,0x8(%rbx)
    2986:	29 6b 04             	sub    %ebp,0x4(%rbx)
    2989:	4c 89 e0             	mov    %r12,%rax
    298c:	48 83 c4 08          	add    $0x8,%rsp
    2990:	5b                   	pop    %rbx
    2991:	5d                   	pop    %rbp
    2992:	41 5c                	pop    %r12
    2994:	41 5d                	pop    %r13
    2996:	c3                   	retq   

0000000000002997 <rio_readlineb>:
    2997:	41 55                	push   %r13
    2999:	41 54                	push   %r12
    299b:	55                   	push   %rbp
    299c:	53                   	push   %rbx
    299d:	48 83 ec 18          	sub    $0x18,%rsp
    29a1:	49 89 fd             	mov    %rdi,%r13
    29a4:	48 89 f5             	mov    %rsi,%rbp
    29a7:	49 89 d4             	mov    %rdx,%r12
    29aa:	64 48 8b 04 25 28 00 	mov    %fs:0x28,%rax
    29b1:	00 00 
    29b3:	48 89 44 24 08       	mov    %rax,0x8(%rsp)
    29b8:	31 c0                	xor    %eax,%eax
    29ba:	bb 01 00 00 00       	mov    $0x1,%ebx
    29bf:	eb 18                	jmp    29d9 <rio_readlineb+0x42>
    29c1:	85 c0                	test   %eax,%eax
    29c3:	75 65                	jne    2a2a <rio_readlineb+0x93>
    29c5:	48 83 fb 01          	cmp    $0x1,%rbx
    29c9:	75 3d                	jne    2a08 <rio_readlineb+0x71>
    29cb:	b8 00 00 00 00       	mov    $0x0,%eax
    29d0:	eb 3d                	jmp    2a0f <rio_readlineb+0x78>
    29d2:	48 83 c3 01          	add    $0x1,%rbx
    29d6:	48 89 d5             	mov    %rdx,%rbp
    29d9:	4c 39 e3             	cmp    %r12,%rbx
    29dc:	73 2a                	jae    2a08 <rio_readlineb+0x71>
    29de:	48 8d 74 24 07       	lea    0x7(%rsp),%rsi
    29e3:	ba 01 00 00 00       	mov    $0x1,%edx
    29e8:	4c 89 ef             	mov    %r13,%rdi
    29eb:	e8 20 ff ff ff       	callq  2910 <rio_read>
    29f0:	83 f8 01             	cmp    $0x1,%eax
    29f3:	75 cc                	jne    29c1 <rio_readlineb+0x2a>
    29f5:	48 8d 55 01          	lea    0x1(%rbp),%rdx
    29f9:	0f b6 44 24 07       	movzbl 0x7(%rsp),%eax
    29fe:	88 45 00             	mov    %al,0x0(%rbp)
    2a01:	3c 0a                	cmp    $0xa,%al
    2a03:	75 cd                	jne    29d2 <rio_readlineb+0x3b>
    2a05:	48 89 d5             	mov    %rdx,%rbp
    2a08:	c6 45 00 00          	movb   $0x0,0x0(%rbp)
    2a0c:	48 89 d8             	mov    %rbx,%rax
    2a0f:	48 8b 4c 24 08       	mov    0x8(%rsp),%rcx
    2a14:	64 48 33 0c 25 28 00 	xor    %fs:0x28,%rcx
    2a1b:	00 00 
    2a1d:	75 14                	jne    2a33 <rio_readlineb+0x9c>
    2a1f:	48 83 c4 18          	add    $0x18,%rsp
    2a23:	5b                   	pop    %rbx
    2a24:	5d                   	pop    %rbp
    2a25:	41 5c                	pop    %r12
    2a27:	41 5d                	pop    %r13
    2a29:	c3                   	retq   
    2a2a:	48 c7 c0 ff ff ff ff 	mov    $0xffffffffffffffff,%rax
    2a31:	eb dc                	jmp    2a0f <rio_readlineb+0x78>
    2a33:	e8 88 e8 ff ff       	callq  12c0 <__stack_chk_fail@plt>

0000000000002a38 <urlencode>:
    2a38:	41 54                	push   %r12
    2a3a:	55                   	push   %rbp
    2a3b:	53                   	push   %rbx
    2a3c:	48 83 ec 10          	sub    $0x10,%rsp
    2a40:	48 89 fb             	mov    %rdi,%rbx
    2a43:	48 89 f5             	mov    %rsi,%rbp
    2a46:	64 48 8b 04 25 28 00 	mov    %fs:0x28,%rax
    2a4d:	00 00 
    2a4f:	48 89 44 24 08       	mov    %rax,0x8(%rsp)
    2a54:	31 c0                	xor    %eax,%eax
    2a56:	48 c7 c1 ff ff ff ff 	mov    $0xffffffffffffffff,%rcx
    2a5d:	f2 ae                	repnz scas %es:(%rdi),%al
    2a5f:	48 f7 d1             	not    %rcx
    2a62:	8d 41 ff             	lea    -0x1(%rcx),%eax
    2a65:	eb 0f                	jmp    2a76 <urlencode+0x3e>
    2a67:	44 88 45 00          	mov    %r8b,0x0(%rbp)
    2a6b:	48 8d 6d 01          	lea    0x1(%rbp),%rbp
    2a6f:	48 83 c3 01          	add    $0x1,%rbx
    2a73:	44 89 e0             	mov    %r12d,%eax
    2a76:	44 8d 60 ff          	lea    -0x1(%rax),%r12d
    2a7a:	85 c0                	test   %eax,%eax
    2a7c:	0f 84 a8 00 00 00    	je     2b2a <urlencode+0xf2>
    2a82:	44 0f b6 03          	movzbl (%rbx),%r8d
    2a86:	41 80 f8 2a          	cmp    $0x2a,%r8b
    2a8a:	0f 94 c2             	sete   %dl
    2a8d:	41 80 f8 2d          	cmp    $0x2d,%r8b
    2a91:	0f 94 c0             	sete   %al
    2a94:	08 c2                	or     %al,%dl
    2a96:	75 cf                	jne    2a67 <urlencode+0x2f>
    2a98:	41 80 f8 2e          	cmp    $0x2e,%r8b
    2a9c:	74 c9                	je     2a67 <urlencode+0x2f>
    2a9e:	41 80 f8 5f          	cmp    $0x5f,%r8b
    2aa2:	74 c3                	je     2a67 <urlencode+0x2f>
    2aa4:	41 8d 40 d0          	lea    -0x30(%r8),%eax
    2aa8:	3c 09                	cmp    $0x9,%al
    2aaa:	76 bb                	jbe    2a67 <urlencode+0x2f>
    2aac:	41 8d 40 bf          	lea    -0x41(%r8),%eax
    2ab0:	3c 19                	cmp    $0x19,%al
    2ab2:	76 b3                	jbe    2a67 <urlencode+0x2f>
    2ab4:	41 8d 40 9f          	lea    -0x61(%r8),%eax
    2ab8:	3c 19                	cmp    $0x19,%al
    2aba:	76 ab                	jbe    2a67 <urlencode+0x2f>
    2abc:	41 80 f8 20          	cmp    $0x20,%r8b
    2ac0:	74 56                	je     2b18 <urlencode+0xe0>
    2ac2:	41 8d 40 e0          	lea    -0x20(%r8),%eax
    2ac6:	3c 5f                	cmp    $0x5f,%al
    2ac8:	0f 96 c2             	setbe  %dl
    2acb:	41 80 f8 09          	cmp    $0x9,%r8b
    2acf:	0f 94 c0             	sete   %al
    2ad2:	08 c2                	or     %al,%dl
    2ad4:	74 4f                	je     2b25 <urlencode+0xed>
    2ad6:	48 89 e7             	mov    %rsp,%rdi
    2ad9:	45 0f b6 c0          	movzbl %r8b,%r8d
    2add:	48 8d 0d 91 1b 00 00 	lea    0x1b91(%rip),%rcx        # 4675 <trans_char+0xa5>
    2ae4:	ba 08 00 00 00       	mov    $0x8,%edx
    2ae9:	be 01 00 00 00       	mov    $0x1,%esi
    2aee:	b8 00 00 00 00       	mov    $0x0,%eax
    2af3:	e8 48 e9 ff ff       	callq  1440 <__sprintf_chk@plt>
    2af8:	0f b6 04 24          	movzbl (%rsp),%eax
    2afc:	88 45 00             	mov    %al,0x0(%rbp)
    2aff:	0f b6 44 24 01       	movzbl 0x1(%rsp),%eax
    2b04:	88 45 01             	mov    %al,0x1(%rbp)
    2b07:	0f b6 44 24 02       	movzbl 0x2(%rsp),%eax
    2b0c:	88 45 02             	mov    %al,0x2(%rbp)
    2b0f:	48 8d 6d 03          	lea    0x3(%rbp),%rbp
    2b13:	e9 57 ff ff ff       	jmpq   2a6f <urlencode+0x37>
    2b18:	c6 45 00 2b          	movb   $0x2b,0x0(%rbp)
    2b1c:	48 8d 6d 01          	lea    0x1(%rbp),%rbp
    2b20:	e9 4a ff ff ff       	jmpq   2a6f <urlencode+0x37>
    2b25:	b8 ff ff ff ff       	mov    $0xffffffff,%eax
    2b2a:	48 8b 74 24 08       	mov    0x8(%rsp),%rsi
    2b2f:	64 48 33 34 25 28 00 	xor    %fs:0x28,%rsi
    2b36:	00 00 
    2b38:	75 09                	jne    2b43 <urlencode+0x10b>
    2b3a:	48 83 c4 10          	add    $0x10,%rsp
    2b3e:	5b                   	pop    %rbx
    2b3f:	5d                   	pop    %rbp
    2b40:	41 5c                	pop    %r12
    2b42:	c3                   	retq   
    2b43:	e8 78 e7 ff ff       	callq  12c0 <__stack_chk_fail@plt>

0000000000002b48 <submitr>:
    2b48:	f3 0f 1e fa          	endbr64 
    2b4c:	41 57                	push   %r15
    2b4e:	41 56                	push   %r14
    2b50:	41 55                	push   %r13
    2b52:	41 54                	push   %r12
    2b54:	55                   	push   %rbp
    2b55:	53                   	push   %rbx
    2b56:	4c 8d 9c 24 00 60 ff 	lea    -0xa000(%rsp),%r11
    2b5d:	ff 
    2b5e:	48 81 ec 00 10 00 00 	sub    $0x1000,%rsp
    2b65:	48 83 0c 24 00       	orq    $0x0,(%rsp)
    2b6a:	4c 39 dc             	cmp    %r11,%rsp
    2b6d:	75 ef                	jne    2b5e <submitr+0x16>
    2b6f:	48 83 ec 68          	sub    $0x68,%rsp
    2b73:	49 89 fc             	mov    %rdi,%r12
    2b76:	89 74 24 14          	mov    %esi,0x14(%rsp)
    2b7a:	49 89 d6             	mov    %rdx,%r14
    2b7d:	48 89 4c 24 08       	mov    %rcx,0x8(%rsp)
    2b82:	4c 89 44 24 18       	mov    %r8,0x18(%rsp)
    2b87:	4d 89 cd             	mov    %r9,%r13
    2b8a:	48 8b ac 24 a0 a0 00 	mov    0xa0a0(%rsp),%rbp
    2b91:	00 
    2b92:	64 48 8b 04 25 28 00 	mov    %fs:0x28,%rax
    2b99:	00 00 
    2b9b:	48 89 84 24 58 a0 00 	mov    %rax,0xa058(%rsp)
    2ba2:	00 
    2ba3:	31 c0                	xor    %eax,%eax
    2ba5:	c7 44 24 2c 00 00 00 	movl   $0x0,0x2c(%rsp)
    2bac:	00 
    2bad:	ba 00 00 00 00       	mov    $0x0,%edx
    2bb2:	be 01 00 00 00       	mov    $0x1,%esi
    2bb7:	bf 02 00 00 00       	mov    $0x2,%edi
    2bbc:	e8 8f e8 ff ff       	callq  1450 <socket@plt>
    2bc1:	85 c0                	test   %eax,%eax
    2bc3:	0f 88 a0 02 00 00    	js     2e69 <submitr+0x321>
    2bc9:	89 c3                	mov    %eax,%ebx
    2bcb:	4c 89 e7             	mov    %r12,%rdi
    2bce:	e8 5d e7 ff ff       	callq  1330 <gethostbyname@plt>
    2bd3:	48 85 c0             	test   %rax,%rax
    2bd6:	0f 84 d9 02 00 00    	je     2eb5 <submitr+0x36d>
    2bdc:	4c 8d 7c 24 30       	lea    0x30(%rsp),%r15
    2be1:	48 c7 44 24 30 00 00 	movq   $0x0,0x30(%rsp)
    2be8:	00 00 
    2bea:	48 c7 44 24 38 00 00 	movq   $0x0,0x38(%rsp)
    2bf1:	00 00 
    2bf3:	66 c7 44 24 30 02 00 	movw   $0x2,0x30(%rsp)
    2bfa:	48 63 50 14          	movslq 0x14(%rax),%rdx
    2bfe:	48 8b 40 18          	mov    0x18(%rax),%rax
    2c02:	48 8b 30             	mov    (%rax),%rsi
    2c05:	48 8d 7c 24 34       	lea    0x34(%rsp),%rdi
    2c0a:	b9 0c 00 00 00       	mov    $0xc,%ecx
    2c0f:	e8 2c e7 ff ff       	callq  1340 <__memmove_chk@plt>
    2c14:	0f b7 74 24 14       	movzwl 0x14(%rsp),%esi
    2c19:	66 c1 c6 08          	rol    $0x8,%si
    2c1d:	66 89 74 24 32       	mov    %si,0x32(%rsp)
    2c22:	ba 10 00 00 00       	mov    $0x10,%edx
    2c27:	4c 89 fe             	mov    %r15,%rsi
    2c2a:	89 df                	mov    %ebx,%edi
    2c2c:	e8 df e7 ff ff       	callq  1410 <connect@plt>
    2c31:	85 c0                	test   %eax,%eax
    2c33:	0f 88 e4 02 00 00    	js     2f1d <submitr+0x3d5>
    2c39:	49 c7 c0 ff ff ff ff 	mov    $0xffffffffffffffff,%r8
    2c40:	b8 00 00 00 00       	mov    $0x0,%eax
    2c45:	4c 89 c1             	mov    %r8,%rcx
    2c48:	4c 89 ef             	mov    %r13,%rdi
    2c4b:	f2 ae                	repnz scas %es:(%rdi),%al
    2c4d:	48 89 ca             	mov    %rcx,%rdx
    2c50:	48 f7 d2             	not    %rdx
    2c53:	4c 89 c1             	mov    %r8,%rcx
    2c56:	4c 89 f7             	mov    %r14,%rdi
    2c59:	f2 ae                	repnz scas %es:(%rdi),%al
    2c5b:	48 f7 d1             	not    %rcx
    2c5e:	48 89 ce             	mov    %rcx,%rsi
    2c61:	4c 89 c1             	mov    %r8,%rcx
    2c64:	48 8b 7c 24 08       	mov    0x8(%rsp),%rdi
    2c69:	f2 ae                	repnz scas %es:(%rdi),%al
    2c6b:	48 f7 d1             	not    %rcx
    2c6e:	48 8d 74 0e fe       	lea    -0x2(%rsi,%rcx,1),%rsi
    2c73:	4c 89 c1             	mov    %r8,%rcx
    2c76:	48 8b 7c 24 18       	mov    0x18(%rsp),%rdi
    2c7b:	f2 ae                	repnz scas %es:(%rdi),%al
    2c7d:	48 89 c8             	mov    %rcx,%rax
    2c80:	48 f7 d0             	not    %rax
    2c83:	48 8d 4c 06 ff       	lea    -0x1(%rsi,%rax,1),%rcx
    2c88:	48 8d 44 52 fd       	lea    -0x3(%rdx,%rdx,2),%rax
    2c8d:	48 8d 84 01 80 00 00 	lea    0x80(%rcx,%rax,1),%rax
    2c94:	00 
    2c95:	48 3d 00 20 00 00    	cmp    $0x2000,%rax
    2c9b:	0f 87 d6 02 00 00    	ja     2f77 <submitr+0x42f>
    2ca1:	48 8d b4 24 50 40 00 	lea    0x4050(%rsp),%rsi
    2ca8:	00 
    2ca9:	b9 00 04 00 00       	mov    $0x400,%ecx
    2cae:	b8 00 00 00 00       	mov    $0x0,%eax
    2cb3:	48 89 f7             	mov    %rsi,%rdi
    2cb6:	f3 48 ab             	rep stos %rax,%es:(%rdi)
    2cb9:	4c 89 ef             	mov    %r13,%rdi
    2cbc:	e8 77 fd ff ff       	callq  2a38 <urlencode>
    2cc1:	85 c0                	test   %eax,%eax
    2cc3:	0f 88 21 03 00 00    	js     2fea <submitr+0x4a2>
    2cc9:	4c 8d bc 24 50 20 00 	lea    0x2050(%rsp),%r15
    2cd0:	00 
    2cd1:	41 54                	push   %r12
    2cd3:	48 8d 84 24 58 40 00 	lea    0x4058(%rsp),%rax
    2cda:	00 
    2cdb:	50                   	push   %rax
    2cdc:	4d 89 f1             	mov    %r14,%r9
    2cdf:	4c 8b 44 24 18       	mov    0x18(%rsp),%r8
    2ce4:	48 8d 0d 1d 19 00 00 	lea    0x191d(%rip),%rcx        # 4608 <trans_char+0x38>
    2ceb:	ba 00 20 00 00       	mov    $0x2000,%edx
    2cf0:	be 01 00 00 00       	mov    $0x1,%esi
    2cf5:	4c 89 ff             	mov    %r15,%rdi
    2cf8:	b8 00 00 00 00       	mov    $0x0,%eax
    2cfd:	e8 3e e7 ff ff       	callq  1440 <__sprintf_chk@plt>
    2d02:	48 c7 c1 ff ff ff ff 	mov    $0xffffffffffffffff,%rcx
    2d09:	b8 00 00 00 00       	mov    $0x0,%eax
    2d0e:	4c 89 ff             	mov    %r15,%rdi
    2d11:	f2 ae                	repnz scas %es:(%rdi),%al
    2d13:	48 f7 d1             	not    %rcx
    2d16:	48 8d 51 ff          	lea    -0x1(%rcx),%rdx
    2d1a:	4c 89 fe             	mov    %r15,%rsi
    2d1d:	89 df                	mov    %ebx,%edi
    2d1f:	e8 8e fb ff ff       	callq  28b2 <rio_writen>
    2d24:	48 83 c4 10          	add    $0x10,%rsp
    2d28:	48 85 c0             	test   %rax,%rax
    2d2b:	0f 88 44 03 00 00    	js     3075 <submitr+0x52d>
    2d31:	4c 8d 64 24 40       	lea    0x40(%rsp),%r12
    2d36:	89 de                	mov    %ebx,%esi
    2d38:	4c 89 e7             	mov    %r12,%rdi
    2d3b:	e8 2a fb ff ff       	callq  286a <rio_readinitb>
    2d40:	48 8d b4 24 50 20 00 	lea    0x2050(%rsp),%rsi
    2d47:	00 
    2d48:	ba 00 20 00 00       	mov    $0x2000,%edx
    2d4d:	4c 89 e7             	mov    %r12,%rdi
    2d50:	e8 42 fc ff ff       	callq  2997 <rio_readlineb>
    2d55:	48 85 c0             	test   %rax,%rax
    2d58:	0f 8e 86 03 00 00    	jle    30e4 <submitr+0x59c>
    2d5e:	48 8d 4c 24 2c       	lea    0x2c(%rsp),%rcx
    2d63:	48 8d 94 24 50 60 00 	lea    0x6050(%rsp),%rdx
    2d6a:	00 
    2d6b:	48 8d bc 24 50 20 00 	lea    0x2050(%rsp),%rdi
    2d72:	00 
    2d73:	4c 8d 84 24 50 80 00 	lea    0x8050(%rsp),%r8
    2d7a:	00 
    2d7b:	48 8d 35 fa 18 00 00 	lea    0x18fa(%rip),%rsi        # 467c <trans_char+0xac>
    2d82:	b8 00 00 00 00       	mov    $0x0,%eax
    2d87:	e8 04 e6 ff ff       	callq  1390 <__isoc99_sscanf@plt>
    2d8c:	48 8d b4 24 50 20 00 	lea    0x2050(%rsp),%rsi
    2d93:	00 
    2d94:	b9 03 00 00 00       	mov    $0x3,%ecx
    2d99:	48 8d 3d f3 18 00 00 	lea    0x18f3(%rip),%rdi        # 4693 <trans_char+0xc3>
    2da0:	f3 a6                	repz cmpsb %es:(%rdi),%ds:(%rsi)
    2da2:	0f 97 c0             	seta   %al
    2da5:	1c 00                	sbb    $0x0,%al
    2da7:	84 c0                	test   %al,%al
    2da9:	0f 84 b3 03 00 00    	je     3162 <submitr+0x61a>
    2daf:	48 8d b4 24 50 20 00 	lea    0x2050(%rsp),%rsi
    2db6:	00 
    2db7:	48 8d 7c 24 40       	lea    0x40(%rsp),%rdi
    2dbc:	ba 00 20 00 00       	mov    $0x2000,%edx
    2dc1:	e8 d1 fb ff ff       	callq  2997 <rio_readlineb>
    2dc6:	48 85 c0             	test   %rax,%rax
    2dc9:	7f c1                	jg     2d8c <submitr+0x244>
    2dcb:	48 b8 45 72 72 6f 72 	movabs $0x43203a726f727245,%rax
    2dd2:	3a 20 43 
    2dd5:	48 ba 6c 69 65 6e 74 	movabs $0x6e7520746e65696c,%rdx
    2ddc:	20 75 6e 
    2ddf:	48 89 45 00          	mov    %rax,0x0(%rbp)
    2de3:	48 89 55 08          	mov    %rdx,0x8(%rbp)
    2de7:	48 b8 61 62 6c 65 20 	movabs $0x206f7420656c6261,%rax
    2dee:	74 6f 20 
    2df1:	48 ba 72 65 61 64 20 	movabs $0x6165682064616572,%rdx
    2df8:	68 65 61 
    2dfb:	48 89 45 10          	mov    %rax,0x10(%rbp)
    2dff:	48 89 55 18          	mov    %rdx,0x18(%rbp)
    2e03:	48 b8 64 65 72 73 20 	movabs $0x6f72662073726564,%rax
    2e0a:	66 72 6f 
    2e0d:	48 ba 6d 20 74 68 65 	movabs $0x657220656874206d,%rdx
    2e14:	20 72 65 
    2e17:	48 89 45 20          	mov    %rax,0x20(%rbp)
    2e1b:	48 89 55 28          	mov    %rdx,0x28(%rbp)
    2e1f:	48 b8 73 75 6c 74 20 	movabs $0x72657320746c7573,%rax
    2e26:	73 65 72 
    2e29:	48 89 45 30          	mov    %rax,0x30(%rbp)
    2e2d:	c7 45 38 76 65 72 00 	movl   $0x726576,0x38(%rbp)
    2e34:	89 df                	mov    %ebx,%edi
    2e36:	e8 c5 e4 ff ff       	callq  1300 <close@plt>
    2e3b:	b8 ff ff ff ff       	mov    $0xffffffff,%eax
    2e40:	48 8b 9c 24 58 a0 00 	mov    0xa058(%rsp),%rbx
    2e47:	00 
    2e48:	64 48 33 1c 25 28 00 	xor    %fs:0x28,%rbx
    2e4f:	00 00 
    2e51:	0f 85 7e 04 00 00    	jne    32d5 <submitr+0x78d>
    2e57:	48 81 c4 68 a0 00 00 	add    $0xa068,%rsp
    2e5e:	5b                   	pop    %rbx
    2e5f:	5d                   	pop    %rbp
    2e60:	41 5c                	pop    %r12
    2e62:	41 5d                	pop    %r13
    2e64:	41 5e                	pop    %r14
    2e66:	41 5f                	pop    %r15
    2e68:	c3                   	retq   
    2e69:	48 b8 45 72 72 6f 72 	movabs $0x43203a726f727245,%rax
    2e70:	3a 20 43 
    2e73:	48 ba 6c 69 65 6e 74 	movabs $0x6e7520746e65696c,%rdx
    2e7a:	20 75 6e 
    2e7d:	48 89 45 00          	mov    %rax,0x0(%rbp)
    2e81:	48 89 55 08          	mov    %rdx,0x8(%rbp)
    2e85:	48 b8 61 62 6c 65 20 	movabs $0x206f7420656c6261,%rax
    2e8c:	74 6f 20 
    2e8f:	48 ba 63 72 65 61 74 	movabs $0x7320657461657263,%rdx
    2e96:	65 20 73 
    2e99:	48 89 45 10          	mov    %rax,0x10(%rbp)
    2e9d:	48 89 55 18          	mov    %rdx,0x18(%rbp)
    2ea1:	c7 45 20 6f 63 6b 65 	movl   $0x656b636f,0x20(%rbp)
    2ea8:	66 c7 45 24 74 00    	movw   $0x74,0x24(%rbp)
    2eae:	b8 ff ff ff ff       	mov    $0xffffffff,%eax
    2eb3:	eb 8b                	jmp    2e40 <submitr+0x2f8>
    2eb5:	48 b8 45 72 72 6f 72 	movabs $0x44203a726f727245,%rax
    2ebc:	3a 20 44 
    2ebf:	48 ba 4e 53 20 69 73 	movabs $0x6e7520736920534e,%rdx
    2ec6:	20 75 6e 
    2ec9:	48 89 45 00          	mov    %rax,0x0(%rbp)
    2ecd:	48 89 55 08          	mov    %rdx,0x8(%rbp)
    2ed1:	48 b8 61 62 6c 65 20 	movabs $0x206f7420656c6261,%rax
    2ed8:	74 6f 20 
    2edb:	48 ba 72 65 73 6f 6c 	movabs $0x2065766c6f736572,%rdx
    2ee2:	76 65 20 
    2ee5:	48 89 45 10          	mov    %rax,0x10(%rbp)
    2ee9:	48 89 55 18          	mov    %rdx,0x18(%rbp)
    2eed:	48 b8 73 65 72 76 65 	movabs $0x6120726576726573,%rax
    2ef4:	72 20 61 
    2ef7:	48 89 45 20          	mov    %rax,0x20(%rbp)
    2efb:	c7 45 28 64 64 72 65 	movl   $0x65726464,0x28(%rbp)
    2f02:	66 c7 45 2c 73 73    	movw   $0x7373,0x2c(%rbp)
    2f08:	c6 45 2e 00          	movb   $0x0,0x2e(%rbp)
    2f0c:	89 df                	mov    %ebx,%edi
    2f0e:	e8 ed e3 ff ff       	callq  1300 <close@plt>
    2f13:	b8 ff ff ff ff       	mov    $0xffffffff,%eax
    2f18:	e9 23 ff ff ff       	jmpq   2e40 <submitr+0x2f8>
    2f1d:	48 b8 45 72 72 6f 72 	movabs $0x55203a726f727245,%rax
    2f24:	3a 20 55 
    2f27:	48 ba 6e 61 62 6c 65 	movabs $0x6f7420656c62616e,%rdx
    2f2e:	20 74 6f 
    2f31:	48 89 45 00          	mov    %rax,0x0(%rbp)
    2f35:	48 89 55 08          	mov    %rdx,0x8(%rbp)
    2f39:	48 b8 20 63 6f 6e 6e 	movabs $0x7463656e6e6f6320,%rax
    2f40:	65 63 74 
    2f43:	48 ba 20 74 6f 20 74 	movabs $0x20656874206f7420,%rdx
    2f4a:	68 65 20 
    2f4d:	48 89 45 10          	mov    %rax,0x10(%rbp)
    2f51:	48 89 55 18          	mov    %rdx,0x18(%rbp)
    2f55:	c7 45 20 73 65 72 76 	movl   $0x76726573,0x20(%rbp)
    2f5c:	66 c7 45 24 65 72    	movw   $0x7265,0x24(%rbp)
    2f62:	c6 45 26 00          	movb   $0x0,0x26(%rbp)
    2f66:	89 df                	mov    %ebx,%edi
    2f68:	e8 93 e3 ff ff       	callq  1300 <close@plt>
    2f6d:	b8 ff ff ff ff       	mov    $0xffffffff,%eax
    2f72:	e9 c9 fe ff ff       	jmpq   2e40 <submitr+0x2f8>
    2f77:	48 b8 45 72 72 6f 72 	movabs $0x52203a726f727245,%rax
    2f7e:	3a 20 52 
    2f81:	48 ba 65 73 75 6c 74 	movabs $0x747320746c757365,%rdx
    2f88:	20 73 74 
    2f8b:	48 89 45 00          	mov    %rax,0x0(%rbp)
    2f8f:	48 89 55 08          	mov    %rdx,0x8(%rbp)
    2f93:	48 b8 72 69 6e 67 20 	movabs $0x6f6f7420676e6972,%rax
    2f9a:	74 6f 6f 
    2f9d:	48 ba 20 6c 61 72 67 	movabs $0x202e656772616c20,%rdx
    2fa4:	65 2e 20 
    2fa7:	48 89 45 10          	mov    %rax,0x10(%rbp)
    2fab:	48 89 55 18          	mov    %rdx,0x18(%rbp)
    2faf:	48 b8 49 6e 63 72 65 	movabs $0x6573616572636e49,%rax
    2fb6:	61 73 65 
    2fb9:	48 ba 20 53 55 42 4d 	movabs $0x5254494d42555320,%rdx
    2fc0:	49 54 52 
    2fc3:	48 89 45 20          	mov    %rax,0x20(%rbp)
    2fc7:	48 89 55 28          	mov    %rdx,0x28(%rbp)
    2fcb:	48 b8 5f 4d 41 58 42 	movabs $0x46554258414d5f,%rax
    2fd2:	55 46 00 
    2fd5:	48 89 45 30          	mov    %rax,0x30(%rbp)
    2fd9:	89 df                	mov    %ebx,%edi
    2fdb:	e8 20 e3 ff ff       	callq  1300 <close@plt>
    2fe0:	b8 ff ff ff ff       	mov    $0xffffffff,%eax
    2fe5:	e9 56 fe ff ff       	jmpq   2e40 <submitr+0x2f8>
    2fea:	48 b8 45 72 72 6f 72 	movabs $0x52203a726f727245,%rax
    2ff1:	3a 20 52 
    2ff4:	48 ba 65 73 75 6c 74 	movabs $0x747320746c757365,%rdx
    2ffb:	20 73 74 
    2ffe:	48 89 45 00          	mov    %rax,0x0(%rbp)
    3002:	48 89 55 08          	mov    %rdx,0x8(%rbp)
    3006:	48 b8 72 69 6e 67 20 	movabs $0x6e6f6320676e6972,%rax
    300d:	63 6f 6e 
    3010:	48 ba 74 61 69 6e 73 	movabs $0x6e6120736e696174,%rdx
    3017:	20 61 6e 
    301a:	48 89 45 10          	mov    %rax,0x10(%rbp)
    301e:	48 89 55 18          	mov    %rdx,0x18(%rbp)
    3022:	48 b8 20 69 6c 6c 65 	movabs $0x6c6167656c6c6920,%rax
    3029:	67 61 6c 
    302c:	48 ba 20 6f 72 20 75 	movabs $0x72706e7520726f20,%rdx
    3033:	6e 70 72 
    3036:	48 89 45 20          	mov    %rax,0x20(%rbp)
    303a:	48 89 55 28          	mov    %rdx,0x28(%rbp)
    303e:	48 b8 69 6e 74 61 62 	movabs $0x20656c6261746e69,%rax
    3045:	6c 65 20 
    3048:	48 ba 63 68 61 72 61 	movabs $0x6574636172616863,%rdx
    304f:	63 74 65 
    3052:	48 89 45 30          	mov    %rax,0x30(%rbp)
    3056:	48 89 55 38          	mov    %rdx,0x38(%rbp)
    305a:	66 c7 45 40 72 2e    	movw   $0x2e72,0x40(%rbp)
    3060:	c6 45 42 00          	movb   $0x0,0x42(%rbp)
    3064:	89 df                	mov    %ebx,%edi
    3066:	e8 95 e2 ff ff       	callq  1300 <close@plt>
    306b:	b8 ff ff ff ff       	mov    $0xffffffff,%eax
    3070:	e9 cb fd ff ff       	jmpq   2e40 <submitr+0x2f8>
    3075:	48 b8 45 72 72 6f 72 	movabs $0x43203a726f727245,%rax
    307c:	3a 20 43 
    307f:	48 ba 6c 69 65 6e 74 	movabs $0x6e7520746e65696c,%rdx
    3086:	20 75 6e 
    3089:	48 89 45 00          	mov    %rax,0x0(%rbp)
    308d:	48 89 55 08          	mov    %rdx,0x8(%rbp)
    3091:	48 b8 61 62 6c 65 20 	movabs $0x206f7420656c6261,%rax
    3098:	74 6f 20 
    309b:	48 ba 77 72 69 74 65 	movabs $0x6f74206574697277,%rdx
    30a2:	20 74 6f 
    30a5:	48 89 45 10          	mov    %rax,0x10(%rbp)
    30a9:	48 89 55 18          	mov    %rdx,0x18(%rbp)
    30ad:	48 b8 20 74 68 65 20 	movabs $0x7365722065687420,%rax
    30b4:	72 65 73 
    30b7:	48 ba 75 6c 74 20 73 	movabs $0x7672657320746c75,%rdx
    30be:	65 72 76 
    30c1:	48 89 45 20          	mov    %rax,0x20(%rbp)
    30c5:	48 89 55 28          	mov    %rdx,0x28(%rbp)
    30c9:	66 c7 45 30 65 72    	movw   $0x7265,0x30(%rbp)
    30cf:	c6 45 32 00          	movb   $0x0,0x32(%rbp)
    30d3:	89 df                	mov    %ebx,%edi
    30d5:	e8 26 e2 ff ff       	callq  1300 <close@plt>
    30da:	b8 ff ff ff ff       	mov    $0xffffffff,%eax
    30df:	e9 5c fd ff ff       	jmpq   2e40 <submitr+0x2f8>
    30e4:	48 b8 45 72 72 6f 72 	movabs $0x43203a726f727245,%rax
    30eb:	3a 20 43 
    30ee:	48 ba 6c 69 65 6e 74 	movabs $0x6e7520746e65696c,%rdx
    30f5:	20 75 6e 
    30f8:	48 89 45 00          	mov    %rax,0x0(%rbp)
    30fc:	48 89 55 08          	mov    %rdx,0x8(%rbp)
    3100:	48 b8 61 62 6c 65 20 	movabs $0x206f7420656c6261,%rax
    3107:	74 6f 20 
    310a:	48 ba 72 65 61 64 20 	movabs $0x7269662064616572,%rdx
    3111:	66 69 72 
    3114:	48 89 45 10          	mov    %rax,0x10(%rbp)
    3118:	48 89 55 18          	mov    %rdx,0x18(%rbp)
    311c:	48 b8 73 74 20 68 65 	movabs $0x6564616568207473,%rax
    3123:	61 64 65 
    3126:	48 ba 72 20 66 72 6f 	movabs $0x72206d6f72662072,%rdx
    312d:	6d 20 72 
    3130:	48 89 45 20          	mov    %rax,0x20(%rbp)
    3134:	48 89 55 28          	mov    %rdx,0x28(%rbp)
    3138:	48 b8 65 73 75 6c 74 	movabs $0x657320746c757365,%rax
    313f:	20 73 65 
    3142:	48 89 45 30          	mov    %rax,0x30(%rbp)
    3146:	c7 45 38 72 76 65 72 	movl   $0x72657672,0x38(%rbp)
    314d:	c6 45 3c 00          	movb   $0x0,0x3c(%rbp)
    3151:	89 df                	mov    %ebx,%edi
    3153:	e8 a8 e1 ff ff       	callq  1300 <close@plt>
    3158:	b8 ff ff ff ff       	mov    $0xffffffff,%eax
    315d:	e9 de fc ff ff       	jmpq   2e40 <submitr+0x2f8>
    3162:	48 8d b4 24 50 20 00 	lea    0x2050(%rsp),%rsi
    3169:	00 
    316a:	48 8d 7c 24 40       	lea    0x40(%rsp),%rdi
    316f:	ba 00 20 00 00       	mov    $0x2000,%edx
    3174:	e8 1e f8 ff ff       	callq  2997 <rio_readlineb>
    3179:	48 85 c0             	test   %rax,%rax
    317c:	0f 8e 96 00 00 00    	jle    3218 <submitr+0x6d0>
    3182:	44 8b 44 24 2c       	mov    0x2c(%rsp),%r8d
    3187:	41 81 f8 c8 00 00 00 	cmp    $0xc8,%r8d
    318e:	0f 85 08 01 00 00    	jne    329c <submitr+0x754>
    3194:	48 8d b4 24 50 20 00 	lea    0x2050(%rsp),%rsi
    319b:	00 
    319c:	48 89 ef             	mov    %rbp,%rdi
    319f:	e8 ec e0 ff ff       	callq  1290 <strcpy@plt>
    31a4:	89 df                	mov    %ebx,%edi
    31a6:	e8 55 e1 ff ff       	callq  1300 <close@plt>
    31ab:	b9 04 00 00 00       	mov    $0x4,%ecx
    31b0:	48 8d 3d d6 14 00 00 	lea    0x14d6(%rip),%rdi        # 468d <trans_char+0xbd>
    31b7:	48 89 ee             	mov    %rbp,%rsi
    31ba:	f3 a6                	repz cmpsb %es:(%rdi),%ds:(%rsi)
    31bc:	0f 97 c0             	seta   %al
    31bf:	1c 00                	sbb    $0x0,%al
    31c1:	0f be c0             	movsbl %al,%eax
    31c4:	85 c0                	test   %eax,%eax
    31c6:	0f 84 74 fc ff ff    	je     2e40 <submitr+0x2f8>
    31cc:	b9 05 00 00 00       	mov    $0x5,%ecx
    31d1:	48 8d 3d b9 14 00 00 	lea    0x14b9(%rip),%rdi        # 4691 <trans_char+0xc1>
    31d8:	48 89 ee             	mov    %rbp,%rsi
    31db:	f3 a6                	repz cmpsb %es:(%rdi),%ds:(%rsi)
    31dd:	0f 97 c0             	seta   %al
    31e0:	1c 00                	sbb    $0x0,%al
    31e2:	0f be c0             	movsbl %al,%eax
    31e5:	85 c0                	test   %eax,%eax
    31e7:	0f 84 53 fc ff ff    	je     2e40 <submitr+0x2f8>
    31ed:	b9 03 00 00 00       	mov    $0x3,%ecx
    31f2:	48 8d 3d 9d 14 00 00 	lea    0x149d(%rip),%rdi        # 4696 <trans_char+0xc6>
    31f9:	48 89 ee             	mov    %rbp,%rsi
    31fc:	f3 a6                	repz cmpsb %es:(%rdi),%ds:(%rsi)
    31fe:	0f 97 c0             	seta   %al
    3201:	1c 00                	sbb    $0x0,%al
    3203:	0f be c0             	movsbl %al,%eax
    3206:	85 c0                	test   %eax,%eax
    3208:	0f 84 32 fc ff ff    	je     2e40 <submitr+0x2f8>
    320e:	b8 ff ff ff ff       	mov    $0xffffffff,%eax
    3213:	e9 28 fc ff ff       	jmpq   2e40 <submitr+0x2f8>
    3218:	48 b8 45 72 72 6f 72 	movabs $0x43203a726f727245,%rax
    321f:	3a 20 43 
    3222:	48 ba 6c 69 65 6e 74 	movabs $0x6e7520746e65696c,%rdx
    3229:	20 75 6e 
    322c:	48 89 45 00          	mov    %rax,0x0(%rbp)
    3230:	48 89 55 08          	mov    %rdx,0x8(%rbp)
    3234:	48 b8 61 62 6c 65 20 	movabs $0x206f7420656c6261,%rax
    323b:	74 6f 20 
    323e:	48 ba 72 65 61 64 20 	movabs $0x6174732064616572,%rdx
    3245:	73 74 61 
    3248:	48 89 45 10          	mov    %rax,0x10(%rbp)
    324c:	48 89 55 18          	mov    %rdx,0x18(%rbp)
    3250:	48 b8 74 75 73 20 6d 	movabs $0x7373656d20737574,%rax
    3257:	65 73 73 
    325a:	48 ba 61 67 65 20 66 	movabs $0x6d6f726620656761,%rdx
    3261:	72 6f 6d 
    3264:	48 89 45 20          	mov    %rax,0x20(%rbp)
    3268:	48 89 55 28          	mov    %rdx,0x28(%rbp)
    326c:	48 b8 20 72 65 73 75 	movabs $0x20746c7573657220,%rax
    3273:	6c 74 20 
    3276:	48 89 45 30          	mov    %rax,0x30(%rbp)
    327a:	c7 45 38 73 65 72 76 	movl   $0x76726573,0x38(%rbp)
    3281:	66 c7 45 3c 65 72    	movw   $0x7265,0x3c(%rbp)
    3287:	c6 45 3e 00          	movb   $0x0,0x3e(%rbp)
    328b:	89 df                	mov    %ebx,%edi
    328d:	e8 6e e0 ff ff       	callq  1300 <close@plt>
    3292:	b8 ff ff ff ff       	mov    $0xffffffff,%eax
    3297:	e9 a4 fb ff ff       	jmpq   2e40 <submitr+0x2f8>
    329c:	4c 8d 8c 24 50 80 00 	lea    0x8050(%rsp),%r9
    32a3:	00 
    32a4:	48 8d 0d 9d 13 00 00 	lea    0x139d(%rip),%rcx        # 4648 <trans_char+0x78>
    32ab:	48 c7 c2 ff ff ff ff 	mov    $0xffffffffffffffff,%rdx
    32b2:	be 01 00 00 00       	mov    $0x1,%esi
    32b7:	48 89 ef             	mov    %rbp,%rdi
    32ba:	b8 00 00 00 00       	mov    $0x0,%eax
    32bf:	e8 7c e1 ff ff       	callq  1440 <__sprintf_chk@plt>
    32c4:	89 df                	mov    %ebx,%edi
    32c6:	e8 35 e0 ff ff       	callq  1300 <close@plt>
    32cb:	b8 ff ff ff ff       	mov    $0xffffffff,%eax
    32d0:	e9 6b fb ff ff       	jmpq   2e40 <submitr+0x2f8>
    32d5:	e8 e6 df ff ff       	callq  12c0 <__stack_chk_fail@plt>

00000000000032da <init_timeout>:
    32da:	f3 0f 1e fa          	endbr64 
    32de:	85 ff                	test   %edi,%edi
    32e0:	74 26                	je     3308 <init_timeout+0x2e>
    32e2:	53                   	push   %rbx
    32e3:	89 fb                	mov    %edi,%ebx
    32e5:	78 1a                	js     3301 <init_timeout+0x27>
    32e7:	48 8d 35 8e f5 ff ff 	lea    -0xa72(%rip),%rsi        # 287c <sigalrm_handler>
    32ee:	bf 0e 00 00 00       	mov    $0xe,%edi
    32f3:	e8 28 e0 ff ff       	callq  1320 <signal@plt>
    32f8:	89 df                	mov    %ebx,%edi
    32fa:	e8 f1 df ff ff       	callq  12f0 <alarm@plt>
    32ff:	5b                   	pop    %rbx
    3300:	c3                   	retq   
    3301:	bb 00 00 00 00       	mov    $0x0,%ebx
    3306:	eb df                	jmp    32e7 <init_timeout+0xd>
    3308:	c3                   	retq   

0000000000003309 <init_driver>:
    3309:	f3 0f 1e fa          	endbr64 
    330d:	41 54                	push   %r12
    330f:	55                   	push   %rbp
    3310:	53                   	push   %rbx
    3311:	48 83 ec 20          	sub    $0x20,%rsp
    3315:	48 89 fd             	mov    %rdi,%rbp
    3318:	64 48 8b 04 25 28 00 	mov    %fs:0x28,%rax
    331f:	00 00 
    3321:	48 89 44 24 18       	mov    %rax,0x18(%rsp)
    3326:	31 c0                	xor    %eax,%eax
    3328:	be 01 00 00 00       	mov    $0x1,%esi
    332d:	bf 0d 00 00 00       	mov    $0xd,%edi
    3332:	e8 e9 df ff ff       	callq  1320 <signal@plt>
    3337:	be 01 00 00 00       	mov    $0x1,%esi
    333c:	bf 1d 00 00 00       	mov    $0x1d,%edi
    3341:	e8 da df ff ff       	callq  1320 <signal@plt>
    3346:	be 01 00 00 00       	mov    $0x1,%esi
    334b:	bf 1d 00 00 00       	mov    $0x1d,%edi
    3350:	e8 cb df ff ff       	callq  1320 <signal@plt>
    3355:	ba 00 00 00 00       	mov    $0x0,%edx
    335a:	be 01 00 00 00       	mov    $0x1,%esi
    335f:	bf 02 00 00 00       	mov    $0x2,%edi
    3364:	e8 e7 e0 ff ff       	callq  1450 <socket@plt>
    3369:	85 c0                	test   %eax,%eax
    336b:	0f 88 9c 00 00 00    	js     340d <init_driver+0x104>
    3371:	89 c3                	mov    %eax,%ebx
    3373:	48 8d 3d 1f 13 00 00 	lea    0x131f(%rip),%rdi        # 4699 <trans_char+0xc9>
    337a:	e8 b1 df ff ff       	callq  1330 <gethostbyname@plt>
    337f:	48 85 c0             	test   %rax,%rax
    3382:	0f 84 d1 00 00 00    	je     3459 <init_driver+0x150>
    3388:	49 89 e4             	mov    %rsp,%r12
    338b:	48 c7 04 24 00 00 00 	movq   $0x0,(%rsp)
    3392:	00 
    3393:	48 c7 44 24 08 00 00 	movq   $0x0,0x8(%rsp)
    339a:	00 00 
    339c:	66 c7 04 24 02 00    	movw   $0x2,(%rsp)
    33a2:	48 63 50 14          	movslq 0x14(%rax),%rdx
    33a6:	48 8b 40 18          	mov    0x18(%rax),%rax
    33aa:	48 8b 30             	mov    (%rax),%rsi
    33ad:	48 8d 7c 24 04       	lea    0x4(%rsp),%rdi
    33b2:	b9 0c 00 00 00       	mov    $0xc,%ecx
    33b7:	e8 84 df ff ff       	callq  1340 <__memmove_chk@plt>
    33bc:	66 c7 44 24 02 3c 9a 	movw   $0x9a3c,0x2(%rsp)
    33c3:	ba 10 00 00 00       	mov    $0x10,%edx
    33c8:	4c 89 e6             	mov    %r12,%rsi
    33cb:	89 df                	mov    %ebx,%edi
    33cd:	e8 3e e0 ff ff       	callq  1410 <connect@plt>
    33d2:	85 c0                	test   %eax,%eax
    33d4:	0f 88 e7 00 00 00    	js     34c1 <init_driver+0x1b8>
    33da:	89 df                	mov    %ebx,%edi
    33dc:	e8 1f df ff ff       	callq  1300 <close@plt>
    33e1:	66 c7 45 00 4f 4b    	movw   $0x4b4f,0x0(%rbp)
    33e7:	c6 45 02 00          	movb   $0x0,0x2(%rbp)
    33eb:	b8 00 00 00 00       	mov    $0x0,%eax
    33f0:	48 8b 4c 24 18       	mov    0x18(%rsp),%rcx
    33f5:	64 48 33 0c 25 28 00 	xor    %fs:0x28,%rcx
    33fc:	00 00 
    33fe:	0f 85 10 01 00 00    	jne    3514 <init_driver+0x20b>
    3404:	48 83 c4 20          	add    $0x20,%rsp
    3408:	5b                   	pop    %rbx
    3409:	5d                   	pop    %rbp
    340a:	41 5c                	pop    %r12
    340c:	c3                   	retq   
    340d:	48 b8 45 72 72 6f 72 	movabs $0x43203a726f727245,%rax
    3414:	3a 20 43 
    3417:	48 ba 6c 69 65 6e 74 	movabs $0x6e7520746e65696c,%rdx
    341e:	20 75 6e 
    3421:	48 89 45 00          	mov    %rax,0x0(%rbp)
    3425:	48 89 55 08          	mov    %rdx,0x8(%rbp)
    3429:	48 b8 61 62 6c 65 20 	movabs $0x206f7420656c6261,%rax
    3430:	74 6f 20 
    3433:	48 ba 63 72 65 61 74 	movabs $0x7320657461657263,%rdx
    343a:	65 20 73 
    343d:	48 89 45 10          	mov    %rax,0x10(%rbp)
    3441:	48 89 55 18          	mov    %rdx,0x18(%rbp)
    3445:	c7 45 20 6f 63 6b 65 	movl   $0x656b636f,0x20(%rbp)
    344c:	66 c7 45 24 74 00    	movw   $0x74,0x24(%rbp)
    3452:	b8 ff ff ff ff       	mov    $0xffffffff,%eax
    3457:	eb 97                	jmp    33f0 <init_driver+0xe7>
    3459:	48 b8 45 72 72 6f 72 	movabs $0x44203a726f727245,%rax
    3460:	3a 20 44 
    3463:	48 ba 4e 53 20 69 73 	movabs $0x6e7520736920534e,%rdx
    346a:	20 75 6e 
    346d:	48 89 45 00          	mov    %rax,0x0(%rbp)
    3471:	48 89 55 08          	mov    %rdx,0x8(%rbp)
    3475:	48 b8 61 62 6c 65 20 	movabs $0x206f7420656c6261,%rax
    347c:	74 6f 20 
    347f:	48 ba 72 65 73 6f 6c 	movabs $0x2065766c6f736572,%rdx
    3486:	76 65 20 
    3489:	48 89 45 10          	mov    %rax,0x10(%rbp)
    348d:	48 89 55 18          	mov    %rdx,0x18(%rbp)
    3491:	48 b8 73 65 72 76 65 	movabs $0x6120726576726573,%rax
    3498:	72 20 61 
    349b:	48 89 45 20          	mov    %rax,0x20(%rbp)
    349f:	c7 45 28 64 64 72 65 	movl   $0x65726464,0x28(%rbp)
    34a6:	66 c7 45 2c 73 73    	movw   $0x7373,0x2c(%rbp)
    34ac:	c6 45 2e 00          	movb   $0x0,0x2e(%rbp)
    34b0:	89 df                	mov    %ebx,%edi
    34b2:	e8 49 de ff ff       	callq  1300 <close@plt>
    34b7:	b8 ff ff ff ff       	mov    $0xffffffff,%eax
    34bc:	e9 2f ff ff ff       	jmpq   33f0 <init_driver+0xe7>
    34c1:	48 b8 45 72 72 6f 72 	movabs $0x55203a726f727245,%rax
    34c8:	3a 20 55 
    34cb:	48 ba 6e 61 62 6c 65 	movabs $0x6f7420656c62616e,%rdx
    34d2:	20 74 6f 
    34d5:	48 89 45 00          	mov    %rax,0x0(%rbp)
    34d9:	48 89 55 08          	mov    %rdx,0x8(%rbp)
    34dd:	48 b8 20 63 6f 6e 6e 	movabs $0x7463656e6e6f6320,%rax
    34e4:	65 63 74 
    34e7:	48 ba 20 74 6f 20 73 	movabs $0x76726573206f7420,%rdx
    34ee:	65 72 76 
    34f1:	48 89 45 10          	mov    %rax,0x10(%rbp)
    34f5:	48 89 55 18          	mov    %rdx,0x18(%rbp)
    34f9:	66 c7 45 20 65 72    	movw   $0x7265,0x20(%rbp)
    34ff:	c6 45 22 00          	movb   $0x0,0x22(%rbp)
    3503:	89 df                	mov    %ebx,%edi
    3505:	e8 f6 dd ff ff       	callq  1300 <close@plt>
    350a:	b8 ff ff ff ff       	mov    $0xffffffff,%eax
    350f:	e9 dc fe ff ff       	jmpq   33f0 <init_driver+0xe7>
    3514:	e8 a7 dd ff ff       	callq  12c0 <__stack_chk_fail@plt>

0000000000003519 <driver_post>:
    3519:	f3 0f 1e fa          	endbr64 
    351d:	53                   	push   %rbx
    351e:	4c 89 cb             	mov    %r9,%rbx
    3521:	45 85 c0             	test   %r8d,%r8d
    3524:	75 18                	jne    353e <driver_post+0x25>
    3526:	48 85 ff             	test   %rdi,%rdi
    3529:	74 05                	je     3530 <driver_post+0x17>
    352b:	80 3f 00             	cmpb   $0x0,(%rdi)
    352e:	75 37                	jne    3567 <driver_post+0x4e>
    3530:	66 c7 03 4f 4b       	movw   $0x4b4f,(%rbx)
    3535:	c6 43 02 00          	movb   $0x0,0x2(%rbx)
    3539:	44 89 c0             	mov    %r8d,%eax
    353c:	5b                   	pop    %rbx
    353d:	c3                   	retq   
    353e:	48 89 ca             	mov    %rcx,%rdx
    3541:	48 8d 35 69 11 00 00 	lea    0x1169(%rip),%rsi        # 46b1 <trans_char+0xe1>
    3548:	bf 01 00 00 00       	mov    $0x1,%edi
    354d:	b8 00 00 00 00       	mov    $0x0,%eax
    3552:	e8 59 de ff ff       	callq  13b0 <__printf_chk@plt>
    3557:	66 c7 03 4f 4b       	movw   $0x4b4f,(%rbx)
    355c:	c6 43 02 00          	movb   $0x0,0x2(%rbx)
    3560:	b8 00 00 00 00       	mov    $0x0,%eax
    3565:	eb d5                	jmp    353c <driver_post+0x23>
    3567:	48 83 ec 08          	sub    $0x8,%rsp
    356b:	41 51                	push   %r9
    356d:	49 89 c9             	mov    %rcx,%r9
    3570:	49 89 d0             	mov    %rdx,%r8
    3573:	48 89 f9             	mov    %rdi,%rcx
    3576:	48 89 f2             	mov    %rsi,%rdx
    3579:	be 9a 3c 00 00       	mov    $0x3c9a,%esi
    357e:	48 8d 3d 14 11 00 00 	lea    0x1114(%rip),%rdi        # 4699 <trans_char+0xc9>
    3585:	e8 be f5 ff ff       	callq  2b48 <submitr>
    358a:	48 83 c4 10          	add    $0x10,%rsp
    358e:	eb ac                	jmp    353c <driver_post+0x23>

0000000000003590 <check>:
    3590:	f3 0f 1e fa          	endbr64 
    3594:	89 f8                	mov    %edi,%eax
    3596:	c1 e8 1c             	shr    $0x1c,%eax
    3599:	74 1d                	je     35b8 <check+0x28>
    359b:	b9 00 00 00 00       	mov    $0x0,%ecx
    35a0:	83 f9 1f             	cmp    $0x1f,%ecx
    35a3:	7f 0d                	jg     35b2 <check+0x22>
    35a5:	89 f8                	mov    %edi,%eax
    35a7:	d3 e8                	shr    %cl,%eax
    35a9:	3c 0a                	cmp    $0xa,%al
    35ab:	74 11                	je     35be <check+0x2e>
    35ad:	83 c1 08             	add    $0x8,%ecx
    35b0:	eb ee                	jmp    35a0 <check+0x10>
    35b2:	b8 01 00 00 00       	mov    $0x1,%eax
    35b7:	c3                   	retq   
    35b8:	b8 00 00 00 00       	mov    $0x0,%eax
    35bd:	c3                   	retq   
    35be:	b8 00 00 00 00       	mov    $0x0,%eax
    35c3:	c3                   	retq   

00000000000035c4 <gencookie>:
    35c4:	f3 0f 1e fa          	endbr64 
    35c8:	53                   	push   %rbx
    35c9:	83 c7 01             	add    $0x1,%edi
    35cc:	e8 9f dc ff ff       	callq  1270 <srandom@plt>
    35d1:	e8 aa dd ff ff       	callq  1380 <random@plt>
    35d6:	48 89 c7             	mov    %rax,%rdi
    35d9:	89 c3                	mov    %eax,%ebx
    35db:	e8 b0 ff ff ff       	callq  3590 <check>
    35e0:	85 c0                	test   %eax,%eax
    35e2:	74 ed                	je     35d1 <gencookie+0xd>
    35e4:	89 d8                	mov    %ebx,%eax
    35e6:	5b                   	pop    %rbx
    35e7:	c3                   	retq   
    35e8:	0f 1f 84 00 00 00 00 	nopl   0x0(%rax,%rax,1)
    35ef:	00 

00000000000035f0 <__libc_csu_init>:
    35f0:	f3 0f 1e fa          	endbr64 
    35f4:	41 57                	push   %r15
    35f6:	4c 8d 3d bb 36 00 00 	lea    0x36bb(%rip),%r15        # 6cb8 <__frame_dummy_init_array_entry>
    35fd:	41 56                	push   %r14
    35ff:	49 89 d6             	mov    %rdx,%r14
    3602:	41 55                	push   %r13
    3604:	49 89 f5             	mov    %rsi,%r13
    3607:	41 54                	push   %r12
    3609:	41 89 fc             	mov    %edi,%r12d
    360c:	55                   	push   %rbp
    360d:	48 8d 2d ac 36 00 00 	lea    0x36ac(%rip),%rbp        # 6cc0 <__do_global_dtors_aux_fini_array_entry>
    3614:	53                   	push   %rbx
    3615:	4c 29 fd             	sub    %r15,%rbp
    3618:	48 83 ec 08          	sub    $0x8,%rsp
    361c:	e8 df d9 ff ff       	callq  1000 <_init>
    3621:	48 c1 fd 03          	sar    $0x3,%rbp
    3625:	74 1f                	je     3646 <__libc_csu_init+0x56>
    3627:	31 db                	xor    %ebx,%ebx
    3629:	0f 1f 80 00 00 00 00 	nopl   0x0(%rax)
    3630:	4c 89 f2             	mov    %r14,%rdx
    3633:	4c 89 ee             	mov    %r13,%rsi
    3636:	44 89 e7             	mov    %r12d,%edi
    3639:	41 ff 14 df          	callq  *(%r15,%rbx,8)
    363d:	48 83 c3 01          	add    $0x1,%rbx
    3641:	48 39 dd             	cmp    %rbx,%rbp
    3644:	75 ea                	jne    3630 <__libc_csu_init+0x40>
    3646:	48 83 c4 08          	add    $0x8,%rsp
    364a:	5b                   	pop    %rbx
    364b:	5d                   	pop    %rbp
    364c:	41 5c                	pop    %r12
    364e:	41 5d                	pop    %r13
    3650:	41 5e                	pop    %r14
    3652:	41 5f                	pop    %r15
    3654:	c3                   	retq   
    3655:	66 66 2e 0f 1f 84 00 	data16 nopw %cs:0x0(%rax,%rax,1)
    365c:	00 00 00 00 

0000000000003660 <__libc_csu_fini>:
    3660:	f3 0f 1e fa          	endbr64 
    3664:	c3                   	retq   

Disassembly of section .fini:

0000000000003668 <_fini>:
    3668:	f3 0f 1e fa          	endbr64 
    366c:	48 83 ec 08          	sub    $0x8,%rsp
    3670:	48 83 c4 08          	add    $0x8,%rsp
    3674:	c3                   	retq   
