
ctarget:     file format elf64-x86-64


Disassembly of section .init:

0000000000001000 <_init>:
    1000:	f3 0f 1e fa          	endbr64 
    1004:	48 83 ec 08          	sub    $0x8,%rsp
    1008:	48 8b 05 d9 5f 00 00 	mov    0x5fd9(%rip),%rax        # 6fe8 <__gmon_start__>
    100f:	48 85 c0             	test   %rax,%rax
    1012:	74 02                	je     1016 <_init+0x16>
    1014:	ff d0                	callq  *%rax
    1016:	48 83 c4 08          	add    $0x8,%rsp
    101a:	c3                   	retq   

Disassembly of section .plt:

0000000000001020 <.plt>:
    1020:	ff 35 9a 5e 00 00    	pushq  0x5e9a(%rip)        # 6ec0 <_GLOBAL_OFFSET_TABLE_+0x8>
    1026:	f2 ff 25 9b 5e 00 00 	bnd jmpq *0x5e9b(%rip)        # 6ec8 <_GLOBAL_OFFSET_TABLE_+0x10>
    102d:	0f 1f 00             	nopl   (%rax)
    1030:	f3 0f 1e fa          	endbr64 
    1034:	68 00 00 00 00       	pushq  $0x0
    1039:	f2 e9 e1 ff ff ff    	bnd jmpq 1020 <.plt>
    103f:	90                   	nop
    1040:	f3 0f 1e fa          	endbr64 
    1044:	68 01 00 00 00       	pushq  $0x1
    1049:	f2 e9 d1 ff ff ff    	bnd jmpq 1020 <.plt>
    104f:	90                   	nop
    1050:	f3 0f 1e fa          	endbr64 
    1054:	68 02 00 00 00       	pushq  $0x2
    1059:	f2 e9 c1 ff ff ff    	bnd jmpq 1020 <.plt>
    105f:	90                   	nop
    1060:	f3 0f 1e fa          	endbr64 
    1064:	68 03 00 00 00       	pushq  $0x3
    1069:	f2 e9 b1 ff ff ff    	bnd jmpq 1020 <.plt>
    106f:	90                   	nop
    1070:	f3 0f 1e fa          	endbr64 
    1074:	68 04 00 00 00       	pushq  $0x4
    1079:	f2 e9 a1 ff ff ff    	bnd jmpq 1020 <.plt>
    107f:	90                   	nop
    1080:	f3 0f 1e fa          	endbr64 
    1084:	68 05 00 00 00       	pushq  $0x5
    1089:	f2 e9 91 ff ff ff    	bnd jmpq 1020 <.plt>
    108f:	90                   	nop
    1090:	f3 0f 1e fa          	endbr64 
    1094:	68 06 00 00 00       	pushq  $0x6
    1099:	f2 e9 81 ff ff ff    	bnd jmpq 1020 <.plt>
    109f:	90                   	nop
    10a0:	f3 0f 1e fa          	endbr64 
    10a4:	68 07 00 00 00       	pushq  $0x7
    10a9:	f2 e9 71 ff ff ff    	bnd jmpq 1020 <.plt>
    10af:	90                   	nop
    10b0:	f3 0f 1e fa          	endbr64 
    10b4:	68 08 00 00 00       	pushq  $0x8
    10b9:	f2 e9 61 ff ff ff    	bnd jmpq 1020 <.plt>
    10bf:	90                   	nop
    10c0:	f3 0f 1e fa          	endbr64 
    10c4:	68 09 00 00 00       	pushq  $0x9
    10c9:	f2 e9 51 ff ff ff    	bnd jmpq 1020 <.plt>
    10cf:	90                   	nop
    10d0:	f3 0f 1e fa          	endbr64 
    10d4:	68 0a 00 00 00       	pushq  $0xa
    10d9:	f2 e9 41 ff ff ff    	bnd jmpq 1020 <.plt>
    10df:	90                   	nop
    10e0:	f3 0f 1e fa          	endbr64 
    10e4:	68 0b 00 00 00       	pushq  $0xb
    10e9:	f2 e9 31 ff ff ff    	bnd jmpq 1020 <.plt>
    10ef:	90                   	nop
    10f0:	f3 0f 1e fa          	endbr64 
    10f4:	68 0c 00 00 00       	pushq  $0xc
    10f9:	f2 e9 21 ff ff ff    	bnd jmpq 1020 <.plt>
    10ff:	90                   	nop
    1100:	f3 0f 1e fa          	endbr64 
    1104:	68 0d 00 00 00       	pushq  $0xd
    1109:	f2 e9 11 ff ff ff    	bnd jmpq 1020 <.plt>
    110f:	90                   	nop
    1110:	f3 0f 1e fa          	endbr64 
    1114:	68 0e 00 00 00       	pushq  $0xe
    1119:	f2 e9 01 ff ff ff    	bnd jmpq 1020 <.plt>
    111f:	90                   	nop
    1120:	f3 0f 1e fa          	endbr64 
    1124:	68 0f 00 00 00       	pushq  $0xf
    1129:	f2 e9 f1 fe ff ff    	bnd jmpq 1020 <.plt>
    112f:	90                   	nop
    1130:	f3 0f 1e fa          	endbr64 
    1134:	68 10 00 00 00       	pushq  $0x10
    1139:	f2 e9 e1 fe ff ff    	bnd jmpq 1020 <.plt>
    113f:	90                   	nop
    1140:	f3 0f 1e fa          	endbr64 
    1144:	68 11 00 00 00       	pushq  $0x11
    1149:	f2 e9 d1 fe ff ff    	bnd jmpq 1020 <.plt>
    114f:	90                   	nop
    1150:	f3 0f 1e fa          	endbr64 
    1154:	68 12 00 00 00       	pushq  $0x12
    1159:	f2 e9 c1 fe ff ff    	bnd jmpq 1020 <.plt>
    115f:	90                   	nop
    1160:	f3 0f 1e fa          	endbr64 
    1164:	68 13 00 00 00       	pushq  $0x13
    1169:	f2 e9 b1 fe ff ff    	bnd jmpq 1020 <.plt>
    116f:	90                   	nop
    1170:	f3 0f 1e fa          	endbr64 
    1174:	68 14 00 00 00       	pushq  $0x14
    1179:	f2 e9 a1 fe ff ff    	bnd jmpq 1020 <.plt>
    117f:	90                   	nop
    1180:	f3 0f 1e fa          	endbr64 
    1184:	68 15 00 00 00       	pushq  $0x15
    1189:	f2 e9 91 fe ff ff    	bnd jmpq 1020 <.plt>
    118f:	90                   	nop
    1190:	f3 0f 1e fa          	endbr64 
    1194:	68 16 00 00 00       	pushq  $0x16
    1199:	f2 e9 81 fe ff ff    	bnd jmpq 1020 <.plt>
    119f:	90                   	nop
    11a0:	f3 0f 1e fa          	endbr64 
    11a4:	68 17 00 00 00       	pushq  $0x17
    11a9:	f2 e9 71 fe ff ff    	bnd jmpq 1020 <.plt>
    11af:	90                   	nop
    11b0:	f3 0f 1e fa          	endbr64 
    11b4:	68 18 00 00 00       	pushq  $0x18
    11b9:	f2 e9 61 fe ff ff    	bnd jmpq 1020 <.plt>
    11bf:	90                   	nop
    11c0:	f3 0f 1e fa          	endbr64 
    11c4:	68 19 00 00 00       	pushq  $0x19
    11c9:	f2 e9 51 fe ff ff    	bnd jmpq 1020 <.plt>
    11cf:	90                   	nop
    11d0:	f3 0f 1e fa          	endbr64 
    11d4:	68 1a 00 00 00       	pushq  $0x1a
    11d9:	f2 e9 41 fe ff ff    	bnd jmpq 1020 <.plt>
    11df:	90                   	nop
    11e0:	f3 0f 1e fa          	endbr64 
    11e4:	68 1b 00 00 00       	pushq  $0x1b
    11e9:	f2 e9 31 fe ff ff    	bnd jmpq 1020 <.plt>
    11ef:	90                   	nop
    11f0:	f3 0f 1e fa          	endbr64 
    11f4:	68 1c 00 00 00       	pushq  $0x1c
    11f9:	f2 e9 21 fe ff ff    	bnd jmpq 1020 <.plt>
    11ff:	90                   	nop
    1200:	f3 0f 1e fa          	endbr64 
    1204:	68 1d 00 00 00       	pushq  $0x1d
    1209:	f2 e9 11 fe ff ff    	bnd jmpq 1020 <.plt>
    120f:	90                   	nop
    1210:	f3 0f 1e fa          	endbr64 
    1214:	68 1e 00 00 00       	pushq  $0x1e
    1219:	f2 e9 01 fe ff ff    	bnd jmpq 1020 <.plt>
    121f:	90                   	nop
    1220:	f3 0f 1e fa          	endbr64 
    1224:	68 1f 00 00 00       	pushq  $0x1f
    1229:	f2 e9 f1 fd ff ff    	bnd jmpq 1020 <.plt>
    122f:	90                   	nop
    1230:	f3 0f 1e fa          	endbr64 
    1234:	68 20 00 00 00       	pushq  $0x20
    1239:	f2 e9 e1 fd ff ff    	bnd jmpq 1020 <.plt>
    123f:	90                   	nop

Disassembly of section .plt.got:

0000000000001240 <__cxa_finalize@plt>:
    1240:	f3 0f 1e fa          	endbr64 
    1244:	f2 ff 25 ad 5d 00 00 	bnd jmpq *0x5dad(%rip)        # 6ff8 <__cxa_finalize@GLIBC_2.2.5>
    124b:	0f 1f 44 00 00       	nopl   0x0(%rax,%rax,1)

Disassembly of section .plt.sec:

0000000000001250 <strcasecmp@plt>:
    1250:	f3 0f 1e fa          	endbr64 
    1254:	f2 ff 25 75 5c 00 00 	bnd jmpq *0x5c75(%rip)        # 6ed0 <strcasecmp@GLIBC_2.2.5>
    125b:	0f 1f 44 00 00       	nopl   0x0(%rax,%rax,1)

0000000000001260 <__errno_location@plt>:
    1260:	f3 0f 1e fa          	endbr64 
    1264:	f2 ff 25 6d 5c 00 00 	bnd jmpq *0x5c6d(%rip)        # 6ed8 <__errno_location@GLIBC_2.2.5>
    126b:	0f 1f 44 00 00       	nopl   0x0(%rax,%rax,1)

0000000000001270 <srandom@plt>:
    1270:	f3 0f 1e fa          	endbr64 
    1274:	f2 ff 25 65 5c 00 00 	bnd jmpq *0x5c65(%rip)        # 6ee0 <srandom@GLIBC_2.2.5>
    127b:	0f 1f 44 00 00       	nopl   0x0(%rax,%rax,1)

0000000000001280 <strncmp@plt>:
    1280:	f3 0f 1e fa          	endbr64 
    1284:	f2 ff 25 5d 5c 00 00 	bnd jmpq *0x5c5d(%rip)        # 6ee8 <strncmp@GLIBC_2.2.5>
    128b:	0f 1f 44 00 00       	nopl   0x0(%rax,%rax,1)

0000000000001290 <strcpy@plt>:
    1290:	f3 0f 1e fa          	endbr64 
    1294:	f2 ff 25 55 5c 00 00 	bnd jmpq *0x5c55(%rip)        # 6ef0 <strcpy@GLIBC_2.2.5>
    129b:	0f 1f 44 00 00       	nopl   0x0(%rax,%rax,1)

00000000000012a0 <puts@plt>:
    12a0:	f3 0f 1e fa          	endbr64 
    12a4:	f2 ff 25 4d 5c 00 00 	bnd jmpq *0x5c4d(%rip)        # 6ef8 <puts@GLIBC_2.2.5>
    12ab:	0f 1f 44 00 00       	nopl   0x0(%rax,%rax,1)

00000000000012b0 <write@plt>:
    12b0:	f3 0f 1e fa          	endbr64 
    12b4:	f2 ff 25 45 5c 00 00 	bnd jmpq *0x5c45(%rip)        # 6f00 <write@GLIBC_2.2.5>
    12bb:	0f 1f 44 00 00       	nopl   0x0(%rax,%rax,1)

00000000000012c0 <__stack_chk_fail@plt>:
    12c0:	f3 0f 1e fa          	endbr64 
    12c4:	f2 ff 25 3d 5c 00 00 	bnd jmpq *0x5c3d(%rip)        # 6f08 <__stack_chk_fail@GLIBC_2.4>
    12cb:	0f 1f 44 00 00       	nopl   0x0(%rax,%rax,1)

00000000000012d0 <mmap@plt>:
    12d0:	f3 0f 1e fa          	endbr64 
    12d4:	f2 ff 25 35 5c 00 00 	bnd jmpq *0x5c35(%rip)        # 6f10 <mmap@GLIBC_2.2.5>
    12db:	0f 1f 44 00 00       	nopl   0x0(%rax,%rax,1)

00000000000012e0 <memset@plt>:
    12e0:	f3 0f 1e fa          	endbr64 
    12e4:	f2 ff 25 2d 5c 00 00 	bnd jmpq *0x5c2d(%rip)        # 6f18 <memset@GLIBC_2.2.5>
    12eb:	0f 1f 44 00 00       	nopl   0x0(%rax,%rax,1)

00000000000012f0 <alarm@plt>:
    12f0:	f3 0f 1e fa          	endbr64 
    12f4:	f2 ff 25 25 5c 00 00 	bnd jmpq *0x5c25(%rip)        # 6f20 <alarm@GLIBC_2.2.5>
    12fb:	0f 1f 44 00 00       	nopl   0x0(%rax,%rax,1)

0000000000001300 <close@plt>:
    1300:	f3 0f 1e fa          	endbr64 
    1304:	f2 ff 25 1d 5c 00 00 	bnd jmpq *0x5c1d(%rip)        # 6f28 <close@GLIBC_2.2.5>
    130b:	0f 1f 44 00 00       	nopl   0x0(%rax,%rax,1)

0000000000001310 <read@plt>:
    1310:	f3 0f 1e fa          	endbr64 
    1314:	f2 ff 25 15 5c 00 00 	bnd jmpq *0x5c15(%rip)        # 6f30 <read@GLIBC_2.2.5>
    131b:	0f 1f 44 00 00       	nopl   0x0(%rax,%rax,1)

0000000000001320 <signal@plt>:
    1320:	f3 0f 1e fa          	endbr64 
    1324:	f2 ff 25 0d 5c 00 00 	bnd jmpq *0x5c0d(%rip)        # 6f38 <signal@GLIBC_2.2.5>
    132b:	0f 1f 44 00 00       	nopl   0x0(%rax,%rax,1)

0000000000001330 <gethostbyname@plt>:
    1330:	f3 0f 1e fa          	endbr64 
    1334:	f2 ff 25 05 5c 00 00 	bnd jmpq *0x5c05(%rip)        # 6f40 <gethostbyname@GLIBC_2.2.5>
    133b:	0f 1f 44 00 00       	nopl   0x0(%rax,%rax,1)

0000000000001340 <__memmove_chk@plt>:
    1340:	f3 0f 1e fa          	endbr64 
    1344:	f2 ff 25 fd 5b 00 00 	bnd jmpq *0x5bfd(%rip)        # 6f48 <__memmove_chk@GLIBC_2.3.4>
    134b:	0f 1f 44 00 00       	nopl   0x0(%rax,%rax,1)

0000000000001350 <strtol@plt>:
    1350:	f3 0f 1e fa          	endbr64 
    1354:	f2 ff 25 f5 5b 00 00 	bnd jmpq *0x5bf5(%rip)        # 6f50 <strtol@GLIBC_2.2.5>
    135b:	0f 1f 44 00 00       	nopl   0x0(%rax,%rax,1)

0000000000001360 <memcpy@plt>:
    1360:	f3 0f 1e fa          	endbr64 
    1364:	f2 ff 25 ed 5b 00 00 	bnd jmpq *0x5bed(%rip)        # 6f58 <memcpy@GLIBC_2.14>
    136b:	0f 1f 44 00 00       	nopl   0x0(%rax,%rax,1)

0000000000001370 <time@plt>:
    1370:	f3 0f 1e fa          	endbr64 
    1374:	f2 ff 25 e5 5b 00 00 	bnd jmpq *0x5be5(%rip)        # 6f60 <time@GLIBC_2.2.5>
    137b:	0f 1f 44 00 00       	nopl   0x0(%rax,%rax,1)

0000000000001380 <random@plt>:
    1380:	f3 0f 1e fa          	endbr64 
    1384:	f2 ff 25 dd 5b 00 00 	bnd jmpq *0x5bdd(%rip)        # 6f68 <random@GLIBC_2.2.5>
    138b:	0f 1f 44 00 00       	nopl   0x0(%rax,%rax,1)

0000000000001390 <__isoc99_sscanf@plt>:
    1390:	f3 0f 1e fa          	endbr64 
    1394:	f2 ff 25 d5 5b 00 00 	bnd jmpq *0x5bd5(%rip)        # 6f70 <__isoc99_sscanf@GLIBC_2.7>
    139b:	0f 1f 44 00 00       	nopl   0x0(%rax,%rax,1)

00000000000013a0 <munmap@plt>:
    13a0:	f3 0f 1e fa          	endbr64 
    13a4:	f2 ff 25 cd 5b 00 00 	bnd jmpq *0x5bcd(%rip)        # 6f78 <munmap@GLIBC_2.2.5>
    13ab:	0f 1f 44 00 00       	nopl   0x0(%rax,%rax,1)

00000000000013b0 <__printf_chk@plt>:
    13b0:	f3 0f 1e fa          	endbr64 
    13b4:	f2 ff 25 c5 5b 00 00 	bnd jmpq *0x5bc5(%rip)        # 6f80 <__printf_chk@GLIBC_2.3.4>
    13bb:	0f 1f 44 00 00       	nopl   0x0(%rax,%rax,1)

00000000000013c0 <fopen@plt>:
    13c0:	f3 0f 1e fa          	endbr64 
    13c4:	f2 ff 25 bd 5b 00 00 	bnd jmpq *0x5bbd(%rip)        # 6f88 <fopen@GLIBC_2.2.5>
    13cb:	0f 1f 44 00 00       	nopl   0x0(%rax,%rax,1)

00000000000013d0 <getopt@plt>:
    13d0:	f3 0f 1e fa          	endbr64 
    13d4:	f2 ff 25 b5 5b 00 00 	bnd jmpq *0x5bb5(%rip)        # 6f90 <getopt@GLIBC_2.2.5>
    13db:	0f 1f 44 00 00       	nopl   0x0(%rax,%rax,1)

00000000000013e0 <strtoul@plt>:
    13e0:	f3 0f 1e fa          	endbr64 
    13e4:	f2 ff 25 ad 5b 00 00 	bnd jmpq *0x5bad(%rip)        # 6f98 <strtoul@GLIBC_2.2.5>
    13eb:	0f 1f 44 00 00       	nopl   0x0(%rax,%rax,1)

00000000000013f0 <gethostname@plt>:
    13f0:	f3 0f 1e fa          	endbr64 
    13f4:	f2 ff 25 a5 5b 00 00 	bnd jmpq *0x5ba5(%rip)        # 6fa0 <gethostname@GLIBC_2.2.5>
    13fb:	0f 1f 44 00 00       	nopl   0x0(%rax,%rax,1)

0000000000001400 <exit@plt>:
    1400:	f3 0f 1e fa          	endbr64 
    1404:	f2 ff 25 9d 5b 00 00 	bnd jmpq *0x5b9d(%rip)        # 6fa8 <exit@GLIBC_2.2.5>
    140b:	0f 1f 44 00 00       	nopl   0x0(%rax,%rax,1)

0000000000001410 <connect@plt>:
    1410:	f3 0f 1e fa          	endbr64 
    1414:	f2 ff 25 95 5b 00 00 	bnd jmpq *0x5b95(%rip)        # 6fb0 <connect@GLIBC_2.2.5>
    141b:	0f 1f 44 00 00       	nopl   0x0(%rax,%rax,1)

0000000000001420 <__fprintf_chk@plt>:
    1420:	f3 0f 1e fa          	endbr64 
    1424:	f2 ff 25 8d 5b 00 00 	bnd jmpq *0x5b8d(%rip)        # 6fb8 <__fprintf_chk@GLIBC_2.3.4>
    142b:	0f 1f 44 00 00       	nopl   0x0(%rax,%rax,1)

0000000000001430 <getc@plt>:
    1430:	f3 0f 1e fa          	endbr64 
    1434:	f2 ff 25 85 5b 00 00 	bnd jmpq *0x5b85(%rip)        # 6fc0 <getc@GLIBC_2.2.5>
    143b:	0f 1f 44 00 00       	nopl   0x0(%rax,%rax,1)

0000000000001440 <__sprintf_chk@plt>:
    1440:	f3 0f 1e fa          	endbr64 
    1444:	f2 ff 25 7d 5b 00 00 	bnd jmpq *0x5b7d(%rip)        # 6fc8 <__sprintf_chk@GLIBC_2.3.4>
    144b:	0f 1f 44 00 00       	nopl   0x0(%rax,%rax,1)

0000000000001450 <socket@plt>:
    1450:	f3 0f 1e fa          	endbr64 
    1454:	f2 ff 25 75 5b 00 00 	bnd jmpq *0x5b75(%rip)        # 6fd0 <socket@GLIBC_2.2.5>
    145b:	0f 1f 44 00 00       	nopl   0x0(%rax,%rax,1)

Disassembly of section .text:

0000000000001460 <_start>:
    1460:	f3 0f 1e fa          	endbr64 
    1464:	31 ed                	xor    %ebp,%ebp
    1466:	49 89 d1             	mov    %rdx,%r9
    1469:	5e                   	pop    %rsi
    146a:	48 89 e2             	mov    %rsp,%rdx
    146d:	48 83 e4 f0          	and    $0xfffffffffffffff0,%rsp
    1471:	50                   	push   %rax
    1472:	54                   	push   %rsp
    1473:	4c 8d 05 16 20 00 00 	lea    0x2016(%rip),%r8        # 3490 <__libc_csu_fini>
    147a:	48 8d 0d 9f 1f 00 00 	lea    0x1f9f(%rip),%rcx        # 3420 <__libc_csu_init>
    1481:	48 8d 3d f8 02 00 00 	lea    0x2f8(%rip),%rdi        # 1780 <main>
    1488:	ff 15 52 5b 00 00    	callq  *0x5b52(%rip)        # 6fe0 <__libc_start_main@GLIBC_2.2.5>
    148e:	f4                   	hlt    
    148f:	90                   	nop

0000000000001490 <deregister_tm_clones>:
    1490:	48 8d 3d a1 5b 00 00 	lea    0x5ba1(%rip),%rdi        # 7038 <__TMC_END__>
    1497:	48 8d 05 9a 5b 00 00 	lea    0x5b9a(%rip),%rax        # 7038 <__TMC_END__>
    149e:	48 39 f8             	cmp    %rdi,%rax
    14a1:	74 15                	je     14b8 <deregister_tm_clones+0x28>
    14a3:	48 8b 05 2e 5b 00 00 	mov    0x5b2e(%rip),%rax        # 6fd8 <_ITM_deregisterTMCloneTable>
    14aa:	48 85 c0             	test   %rax,%rax
    14ad:	74 09                	je     14b8 <deregister_tm_clones+0x28>
    14af:	ff e0                	jmpq   *%rax
    14b1:	0f 1f 80 00 00 00 00 	nopl   0x0(%rax)
    14b8:	c3                   	retq   
    14b9:	0f 1f 80 00 00 00 00 	nopl   0x0(%rax)

00000000000014c0 <register_tm_clones>:
    14c0:	48 8d 3d 71 5b 00 00 	lea    0x5b71(%rip),%rdi        # 7038 <__TMC_END__>
    14c7:	48 8d 35 6a 5b 00 00 	lea    0x5b6a(%rip),%rsi        # 7038 <__TMC_END__>
    14ce:	48 29 fe             	sub    %rdi,%rsi
    14d1:	48 89 f0             	mov    %rsi,%rax
    14d4:	48 c1 ee 3f          	shr    $0x3f,%rsi
    14d8:	48 c1 f8 03          	sar    $0x3,%rax
    14dc:	48 01 c6             	add    %rax,%rsi
    14df:	48 d1 fe             	sar    %rsi
    14e2:	74 14                	je     14f8 <register_tm_clones+0x38>
    14e4:	48 8b 05 05 5b 00 00 	mov    0x5b05(%rip),%rax        # 6ff0 <_ITM_registerTMCloneTable>
    14eb:	48 85 c0             	test   %rax,%rax
    14ee:	74 08                	je     14f8 <register_tm_clones+0x38>
    14f0:	ff e0                	jmpq   *%rax
    14f2:	66 0f 1f 44 00 00    	nopw   0x0(%rax,%rax,1)
    14f8:	c3                   	retq   
    14f9:	0f 1f 80 00 00 00 00 	nopl   0x0(%rax)

0000000000001500 <__do_global_dtors_aux>:
    1500:	f3 0f 1e fa          	endbr64 
    1504:	80 3d 5d 5b 00 00 00 	cmpb   $0x0,0x5b5d(%rip)        # 7068 <completed.8061>
    150b:	75 2b                	jne    1538 <__do_global_dtors_aux+0x38>
    150d:	55                   	push   %rbp
    150e:	48 83 3d e2 5a 00 00 	cmpq   $0x0,0x5ae2(%rip)        # 6ff8 <__cxa_finalize@GLIBC_2.2.5>
    1515:	00 
    1516:	48 89 e5             	mov    %rsp,%rbp
    1519:	74 0c                	je     1527 <__do_global_dtors_aux+0x27>
    151b:	48 8b 3d e6 5a 00 00 	mov    0x5ae6(%rip),%rdi        # 7008 <__dso_handle>
    1522:	e8 19 fd ff ff       	callq  1240 <__cxa_finalize@plt>
    1527:	e8 64 ff ff ff       	callq  1490 <deregister_tm_clones>
    152c:	c6 05 35 5b 00 00 01 	movb   $0x1,0x5b35(%rip)        # 7068 <completed.8061>
    1533:	5d                   	pop    %rbp
    1534:	c3                   	retq   
    1535:	0f 1f 00             	nopl   (%rax)
    1538:	c3                   	retq   
    1539:	0f 1f 80 00 00 00 00 	nopl   0x0(%rax)

0000000000001540 <frame_dummy>:
    1540:	f3 0f 1e fa          	endbr64 
    1544:	e9 77 ff ff ff       	jmpq   14c0 <register_tm_clones>

0000000000001549 <usage>:
    1549:	50                   	push   %rax
    154a:	58                   	pop    %rax
    154b:	48 83 ec 08          	sub    $0x8,%rsp
    154f:	48 89 fa             	mov    %rdi,%rdx
    1552:	83 3d 73 5e 00 00 00 	cmpl   $0x0,0x5e73(%rip)        # 73cc <is_checker>
    1559:	74 50                	je     15ab <usage+0x62>
    155b:	48 8d 35 a6 2a 00 00 	lea    0x2aa6(%rip),%rsi        # 4008 <_IO_stdin_used+0x8>
    1562:	bf 01 00 00 00       	mov    $0x1,%edi
    1567:	b8 00 00 00 00       	mov    $0x0,%eax
    156c:	e8 3f fe ff ff       	callq  13b0 <__printf_chk@plt>
    1571:	48 8d 3d c8 2a 00 00 	lea    0x2ac8(%rip),%rdi        # 4040 <_IO_stdin_used+0x40>
    1578:	e8 23 fd ff ff       	callq  12a0 <puts@plt>
    157d:	48 8d 3d 04 2c 00 00 	lea    0x2c04(%rip),%rdi        # 4188 <_IO_stdin_used+0x188>
    1584:	e8 17 fd ff ff       	callq  12a0 <puts@plt>
    1589:	48 8d 3d d8 2a 00 00 	lea    0x2ad8(%rip),%rdi        # 4068 <_IO_stdin_used+0x68>
    1590:	e8 0b fd ff ff       	callq  12a0 <puts@plt>
    1595:	48 8d 3d 06 2c 00 00 	lea    0x2c06(%rip),%rdi        # 41a2 <_IO_stdin_used+0x1a2>
    159c:	e8 ff fc ff ff       	callq  12a0 <puts@plt>
    15a1:	bf 00 00 00 00       	mov    $0x0,%edi
    15a6:	e8 55 fe ff ff       	callq  1400 <exit@plt>
    15ab:	48 8d 35 0c 2c 00 00 	lea    0x2c0c(%rip),%rsi        # 41be <_IO_stdin_used+0x1be>
    15b2:	bf 01 00 00 00       	mov    $0x1,%edi
    15b7:	b8 00 00 00 00       	mov    $0x0,%eax
    15bc:	e8 ef fd ff ff       	callq  13b0 <__printf_chk@plt>
    15c1:	48 8d 3d c8 2a 00 00 	lea    0x2ac8(%rip),%rdi        # 4090 <_IO_stdin_used+0x90>
    15c8:	e8 d3 fc ff ff       	callq  12a0 <puts@plt>
    15cd:	48 8d 3d 08 2c 00 00 	lea    0x2c08(%rip),%rdi        # 41dc <_IO_stdin_used+0x1dc>
    15d4:	e8 c7 fc ff ff       	callq  12a0 <puts@plt>
    15d9:	eb c6                	jmp    15a1 <usage+0x58>

00000000000015db <initialize_target>:
    15db:	55                   	push   %rbp
    15dc:	53                   	push   %rbx
    15dd:	48 81 ec 00 10 00 00 	sub    $0x1000,%rsp
    15e4:	48 83 0c 24 00       	orq    $0x0,(%rsp)
    15e9:	48 81 ec 00 10 00 00 	sub    $0x1000,%rsp
    15f0:	48 83 0c 24 00       	orq    $0x0,(%rsp)
    15f5:	48 81 ec 18 01 00 00 	sub    $0x118,%rsp
    15fc:	89 f5                	mov    %esi,%ebp
    15fe:	64 48 8b 04 25 28 00 	mov    %fs:0x28,%rax
    1605:	00 00 
    1607:	48 89 84 24 08 21 00 	mov    %rax,0x2108(%rsp)
    160e:	00 
    160f:	31 c0                	xor    %eax,%eax
    1611:	89 3d a5 5d 00 00    	mov    %edi,0x5da5(%rip)        # 73bc <check_level>
    1617:	8b 3d f3 59 00 00    	mov    0x59f3(%rip),%edi        # 7010 <target_id>
    161d:	e8 d5 1d 00 00       	callq  33f7 <gencookie>
    1622:	89 c7                	mov    %eax,%edi
    1624:	89 05 9e 5d 00 00    	mov    %eax,0x5d9e(%rip)        # 73c8 <cookie>
    162a:	e8 c8 1d 00 00       	callq  33f7 <gencookie>
    162f:	89 05 8f 5d 00 00    	mov    %eax,0x5d8f(%rip)        # 73c4 <authkey>
    1635:	8b 05 d5 59 00 00    	mov    0x59d5(%rip),%eax        # 7010 <target_id>
    163b:	8d 78 01             	lea    0x1(%rax),%edi
    163e:	e8 2d fc ff ff       	callq  1270 <srandom@plt>
    1643:	e8 38 fd ff ff       	callq  1380 <random@plt>
    1648:	48 89 c7             	mov    %rax,%rdi
    164b:	e8 20 03 00 00       	callq  1970 <scramble>
    1650:	89 c3                	mov    %eax,%ebx
    1652:	85 ed                	test   %ebp,%ebp
    1654:	75 54                	jne    16aa <initialize_target+0xcf>
    1656:	b8 00 00 00 00       	mov    $0x0,%eax
    165b:	01 d8                	add    %ebx,%eax
    165d:	0f b7 c0             	movzwl %ax,%eax
    1660:	8d 04 c5 00 01 00 00 	lea    0x100(,%rax,8),%eax
    1667:	89 c0                	mov    %eax,%eax
    1669:	48 89 05 c0 59 00 00 	mov    %rax,0x59c0(%rip)        # 7030 <buf_offset>
    1670:	c6 05 71 69 00 00 63 	movb   $0x63,0x6971(%rip)        # 7fe8 <target_prefix>
    1677:	83 3d 3a 5d 00 00 00 	cmpl   $0x0,0x5d3a(%rip)        # 73b8 <notify>
    167e:	74 09                	je     1689 <initialize_target+0xae>
    1680:	83 3d 45 5d 00 00 00 	cmpl   $0x0,0x5d45(%rip)        # 73cc <is_checker>
    1687:	74 3a                	je     16c3 <initialize_target+0xe8>
    1689:	48 8b 84 24 08 21 00 	mov    0x2108(%rsp),%rax
    1690:	00 
    1691:	64 48 33 04 25 28 00 	xor    %fs:0x28,%rax
    1698:	00 00 
    169a:	0f 85 db 00 00 00    	jne    177b <initialize_target+0x1a0>
    16a0:	48 81 c4 18 21 00 00 	add    $0x2118,%rsp
    16a7:	5b                   	pop    %rbx
    16a8:	5d                   	pop    %rbp
    16a9:	c3                   	retq   
    16aa:	bf 00 00 00 00       	mov    $0x0,%edi
    16af:	e8 bc fc ff ff       	callq  1370 <time@plt>
    16b4:	48 89 c7             	mov    %rax,%rdi
    16b7:	e8 b4 fb ff ff       	callq  1270 <srandom@plt>
    16bc:	e8 bf fc ff ff       	callq  1380 <random@plt>
    16c1:	eb 98                	jmp    165b <initialize_target+0x80>
    16c3:	48 89 e7             	mov    %rsp,%rdi
    16c6:	be 00 01 00 00       	mov    $0x100,%esi
    16cb:	e8 20 fd ff ff       	callq  13f0 <gethostname@plt>
    16d0:	89 c5                	mov    %eax,%ebp
    16d2:	85 c0                	test   %eax,%eax
    16d4:	75 26                	jne    16fc <initialize_target+0x121>
    16d6:	89 c3                	mov    %eax,%ebx
    16d8:	48 63 c3             	movslq %ebx,%rax
    16db:	48 8d 15 9e 59 00 00 	lea    0x599e(%rip),%rdx        # 7080 <host_table>
    16e2:	48 8b 3c c2          	mov    (%rdx,%rax,8),%rdi
    16e6:	48 85 ff             	test   %rdi,%rdi
    16e9:	74 2c                	je     1717 <initialize_target+0x13c>
    16eb:	48 89 e6             	mov    %rsp,%rsi
    16ee:	e8 5d fb ff ff       	callq  1250 <strcasecmp@plt>
    16f3:	85 c0                	test   %eax,%eax
    16f5:	74 1b                	je     1712 <initialize_target+0x137>
    16f7:	83 c3 01             	add    $0x1,%ebx
    16fa:	eb dc                	jmp    16d8 <initialize_target+0xfd>
    16fc:	48 8d 3d b5 29 00 00 	lea    0x29b5(%rip),%rdi        # 40b8 <_IO_stdin_used+0xb8>
    1703:	e8 98 fb ff ff       	callq  12a0 <puts@plt>
    1708:	bf 08 00 00 00       	mov    $0x8,%edi
    170d:	e8 ee fc ff ff       	callq  1400 <exit@plt>
    1712:	bd 01 00 00 00       	mov    $0x1,%ebp
    1717:	85 ed                	test   %ebp,%ebp
    1719:	74 3d                	je     1758 <initialize_target+0x17d>
    171b:	48 8d bc 24 00 01 00 	lea    0x100(%rsp),%rdi
    1722:	00 
    1723:	e8 14 1a 00 00       	callq  313c <init_driver>
    1728:	85 c0                	test   %eax,%eax
    172a:	0f 89 59 ff ff ff    	jns    1689 <initialize_target+0xae>
    1730:	48 8d 94 24 00 01 00 	lea    0x100(%rsp),%rdx
    1737:	00 
    1738:	48 8d 35 f1 29 00 00 	lea    0x29f1(%rip),%rsi        # 4130 <_IO_stdin_used+0x130>
    173f:	bf 01 00 00 00       	mov    $0x1,%edi
    1744:	b8 00 00 00 00       	mov    $0x0,%eax
    1749:	e8 62 fc ff ff       	callq  13b0 <__printf_chk@plt>
    174e:	bf 08 00 00 00       	mov    $0x8,%edi
    1753:	e8 a8 fc ff ff       	callq  1400 <exit@plt>
    1758:	48 89 e2             	mov    %rsp,%rdx
    175b:	48 8d 35 8e 29 00 00 	lea    0x298e(%rip),%rsi        # 40f0 <_IO_stdin_used+0xf0>
    1762:	bf 01 00 00 00       	mov    $0x1,%edi
    1767:	b8 00 00 00 00       	mov    $0x0,%eax
    176c:	e8 3f fc ff ff       	callq  13b0 <__printf_chk@plt>
    1771:	bf 08 00 00 00       	mov    $0x8,%edi
    1776:	e8 85 fc ff ff       	callq  1400 <exit@plt>
    177b:	e8 40 fb ff ff       	callq  12c0 <__stack_chk_fail@plt>

0000000000001780 <main>:
    1780:	f3 0f 1e fa          	endbr64 
    1784:	41 56                	push   %r14
    1786:	41 55                	push   %r13
    1788:	41 54                	push   %r12
    178a:	55                   	push   %rbp
    178b:	53                   	push   %rbx
    178c:	89 fd                	mov    %edi,%ebp
    178e:	48 89 f3             	mov    %rsi,%rbx
    1791:	48 8d 35 47 0c 00 00 	lea    0xc47(%rip),%rsi        # 23df <seghandler>
    1798:	bf 0b 00 00 00       	mov    $0xb,%edi
    179d:	e8 7e fb ff ff       	callq  1320 <signal@plt>
    17a2:	48 8d 35 dc 0b 00 00 	lea    0xbdc(%rip),%rsi        # 2385 <bushandler>
    17a9:	bf 07 00 00 00       	mov    $0x7,%edi
    17ae:	e8 6d fb ff ff       	callq  1320 <signal@plt>
    17b3:	48 8d 35 7f 0c 00 00 	lea    0xc7f(%rip),%rsi        # 2439 <illegalhandler>
    17ba:	bf 04 00 00 00       	mov    $0x4,%edi
    17bf:	e8 5c fb ff ff       	callq  1320 <signal@plt>
    17c4:	83 3d 01 5c 00 00 00 	cmpl   $0x0,0x5c01(%rip)        # 73cc <is_checker>
    17cb:	75 26                	jne    17f3 <main+0x73>
    17cd:	4c 8d 25 29 2a 00 00 	lea    0x2a29(%rip),%r12        # 41fd <_IO_stdin_used+0x1fd>
    17d4:	48 8b 05 65 58 00 00 	mov    0x5865(%rip),%rax        # 7040 <stdin@@GLIBC_2.2.5>
    17db:	48 89 05 ce 5b 00 00 	mov    %rax,0x5bce(%rip)        # 73b0 <infile>
    17e2:	41 bd 00 00 00 00    	mov    $0x0,%r13d
    17e8:	41 be 00 00 00 00    	mov    $0x0,%r14d
    17ee:	e9 8d 00 00 00       	jmpq   1880 <main+0x100>
    17f3:	48 8d 35 99 0c 00 00 	lea    0xc99(%rip),%rsi        # 2493 <sigalrmhandler>
    17fa:	bf 0e 00 00 00       	mov    $0xe,%edi
    17ff:	e8 1c fb ff ff       	callq  1320 <signal@plt>
    1804:	bf 05 00 00 00       	mov    $0x5,%edi
    1809:	e8 e2 fa ff ff       	callq  12f0 <alarm@plt>
    180e:	4c 8d 25 e0 29 00 00 	lea    0x29e0(%rip),%r12        # 41f5 <_IO_stdin_used+0x1f5>
    1815:	eb bd                	jmp    17d4 <main+0x54>
    1817:	48 8b 3b             	mov    (%rbx),%rdi
    181a:	e8 2a fd ff ff       	callq  1549 <usage>
    181f:	48 8d 35 d4 2b 00 00 	lea    0x2bd4(%rip),%rsi        # 43fa <_IO_stdin_used+0x3fa>
    1826:	48 8b 3d 1b 58 00 00 	mov    0x581b(%rip),%rdi        # 7048 <optarg@@GLIBC_2.2.5>
    182d:	e8 8e fb ff ff       	callq  13c0 <fopen@plt>
    1832:	48 89 05 77 5b 00 00 	mov    %rax,0x5b77(%rip)        # 73b0 <infile>
    1839:	48 85 c0             	test   %rax,%rax
    183c:	75 42                	jne    1880 <main+0x100>
    183e:	48 8b 0d 03 58 00 00 	mov    0x5803(%rip),%rcx        # 7048 <optarg@@GLIBC_2.2.5>
    1845:	48 8d 15 b6 29 00 00 	lea    0x29b6(%rip),%rdx        # 4202 <_IO_stdin_used+0x202>
    184c:	be 01 00 00 00       	mov    $0x1,%esi
    1851:	48 8b 3d 08 58 00 00 	mov    0x5808(%rip),%rdi        # 7060 <stderr@@GLIBC_2.2.5>
    1858:	e8 c3 fb ff ff       	callq  1420 <__fprintf_chk@plt>
    185d:	b8 01 00 00 00       	mov    $0x1,%eax
    1862:	e9 db 00 00 00       	jmpq   1942 <main+0x1c2>
    1867:	ba 10 00 00 00       	mov    $0x10,%edx
    186c:	be 00 00 00 00       	mov    $0x0,%esi
    1871:	48 8b 3d d0 57 00 00 	mov    0x57d0(%rip),%rdi        # 7048 <optarg@@GLIBC_2.2.5>
    1878:	e8 63 fb ff ff       	callq  13e0 <strtoul@plt>
    187d:	41 89 c6             	mov    %eax,%r14d
    1880:	4c 89 e2             	mov    %r12,%rdx
    1883:	48 89 de             	mov    %rbx,%rsi
    1886:	89 ef                	mov    %ebp,%edi
    1888:	e8 43 fb ff ff       	callq  13d0 <getopt@plt>
    188d:	3c ff                	cmp    $0xff,%al
    188f:	74 65                	je     18f6 <main+0x176>
    1891:	0f be c8             	movsbl %al,%ecx
    1894:	83 e8 61             	sub    $0x61,%eax
    1897:	3c 10                	cmp    $0x10,%al
    1899:	77 3b                	ja     18d6 <main+0x156>
    189b:	0f b6 c0             	movzbl %al,%eax
    189e:	48 8d 15 9b 29 00 00 	lea    0x299b(%rip),%rdx        # 4240 <_IO_stdin_used+0x240>
    18a5:	48 63 04 82          	movslq (%rdx,%rax,4),%rax
    18a9:	48 01 d0             	add    %rdx,%rax
    18ac:	3e ff e0             	notrack jmpq *%rax
    18af:	ba 0a 00 00 00       	mov    $0xa,%edx
    18b4:	be 00 00 00 00       	mov    $0x0,%esi
    18b9:	48 8b 3d 88 57 00 00 	mov    0x5788(%rip),%rdi        # 7048 <optarg@@GLIBC_2.2.5>
    18c0:	e8 8b fa ff ff       	callq  1350 <strtol@plt>
    18c5:	41 89 c5             	mov    %eax,%r13d
    18c8:	eb b6                	jmp    1880 <main+0x100>
    18ca:	c7 05 e4 5a 00 00 00 	movl   $0x0,0x5ae4(%rip)        # 73b8 <notify>
    18d1:	00 00 00 
    18d4:	eb aa                	jmp    1880 <main+0x100>
    18d6:	89 ca                	mov    %ecx,%edx
    18d8:	48 8d 35 40 29 00 00 	lea    0x2940(%rip),%rsi        # 421f <_IO_stdin_used+0x21f>
    18df:	bf 01 00 00 00       	mov    $0x1,%edi
    18e4:	b8 00 00 00 00       	mov    $0x0,%eax
    18e9:	e8 c2 fa ff ff       	callq  13b0 <__printf_chk@plt>
    18ee:	48 8b 3b             	mov    (%rbx),%rdi
    18f1:	e8 53 fc ff ff       	callq  1549 <usage>
    18f6:	be 00 00 00 00       	mov    $0x0,%esi
    18fb:	44 89 ef             	mov    %r13d,%edi
    18fe:	e8 d8 fc ff ff       	callq  15db <initialize_target>
    1903:	83 3d c2 5a 00 00 00 	cmpl   $0x0,0x5ac2(%rip)        # 73cc <is_checker>
    190a:	74 09                	je     1915 <main+0x195>
    190c:	44 39 35 b1 5a 00 00 	cmp    %r14d,0x5ab1(%rip)        # 73c4 <authkey>
    1913:	75 36                	jne    194b <main+0x1cb>
    1915:	8b 15 ad 5a 00 00    	mov    0x5aad(%rip),%edx        # 73c8 <cookie>
    191b:	48 8d 35 10 29 00 00 	lea    0x2910(%rip),%rsi        # 4232 <_IO_stdin_used+0x232>
    1922:	bf 01 00 00 00       	mov    $0x1,%edi
    1927:	b8 00 00 00 00       	mov    $0x0,%eax
    192c:	e8 7f fa ff ff       	callq  13b0 <__printf_chk@plt>
    1931:	48 8b 3d f8 56 00 00 	mov    0x56f8(%rip),%rdi        # 7030 <buf_offset>
    1938:	e8 a8 0c 00 00       	callq  25e5 <stable_launch>
    193d:	b8 00 00 00 00       	mov    $0x0,%eax
    1942:	5b                   	pop    %rbx
    1943:	5d                   	pop    %rbp
    1944:	41 5c                	pop    %r12
    1946:	41 5d                	pop    %r13
    1948:	41 5e                	pop    %r14
    194a:	c3                   	retq   
    194b:	44 89 f2             	mov    %r14d,%edx
    194e:	48 8d 35 03 28 00 00 	lea    0x2803(%rip),%rsi        # 4158 <_IO_stdin_used+0x158>
    1955:	bf 01 00 00 00       	mov    $0x1,%edi
    195a:	b8 00 00 00 00       	mov    $0x0,%eax
    195f:	e8 4c fa ff ff       	callq  13b0 <__printf_chk@plt>
    1964:	b8 00 00 00 00       	mov    $0x0,%eax
    1969:	e8 8a 07 00 00       	callq  20f8 <check_fail>
    196e:	eb a5                	jmp    1915 <main+0x195>

0000000000001970 <scramble>:
    1970:	f3 0f 1e fa          	endbr64 
    1974:	48 83 ec 38          	sub    $0x38,%rsp
    1978:	64 48 8b 04 25 28 00 	mov    %fs:0x28,%rax
    197f:	00 00 
    1981:	48 89 44 24 28       	mov    %rax,0x28(%rsp)
    1986:	31 c0                	xor    %eax,%eax
    1988:	83 f8 09             	cmp    $0x9,%eax
    198b:	77 12                	ja     199f <scramble+0x2f>
    198d:	69 d0 93 b4 00 00    	imul   $0xb493,%eax,%edx
    1993:	01 fa                	add    %edi,%edx
    1995:	89 c1                	mov    %eax,%ecx
    1997:	89 14 8c             	mov    %edx,(%rsp,%rcx,4)
    199a:	83 c0 01             	add    $0x1,%eax
    199d:	eb e9                	jmp    1988 <scramble+0x18>
    199f:	8b 04 24             	mov    (%rsp),%eax
    19a2:	69 c0 c7 2b 00 00    	imul   $0x2bc7,%eax,%eax
    19a8:	89 04 24             	mov    %eax,(%rsp)
    19ab:	8b 04 24             	mov    (%rsp),%eax
    19ae:	69 c0 ce 24 00 00    	imul   $0x24ce,%eax,%eax
    19b4:	89 04 24             	mov    %eax,(%rsp)
    19b7:	8b 44 24 18          	mov    0x18(%rsp),%eax
    19bb:	69 c0 3c 8e 00 00    	imul   $0x8e3c,%eax,%eax
    19c1:	89 44 24 18          	mov    %eax,0x18(%rsp)
    19c5:	8b 44 24 14          	mov    0x14(%rsp),%eax
    19c9:	69 c0 c5 2e 00 00    	imul   $0x2ec5,%eax,%eax
    19cf:	89 44 24 14          	mov    %eax,0x14(%rsp)
    19d3:	8b 44 24 20          	mov    0x20(%rsp),%eax
    19d7:	69 c0 88 95 00 00    	imul   $0x9588,%eax,%eax
    19dd:	89 44 24 20          	mov    %eax,0x20(%rsp)
    19e1:	8b 44 24 18          	mov    0x18(%rsp),%eax
    19e5:	69 c0 20 92 00 00    	imul   $0x9220,%eax,%eax
    19eb:	89 44 24 18          	mov    %eax,0x18(%rsp)
    19ef:	8b 44 24 18          	mov    0x18(%rsp),%eax
    19f3:	69 c0 35 e6 00 00    	imul   $0xe635,%eax,%eax
    19f9:	89 44 24 18          	mov    %eax,0x18(%rsp)
    19fd:	8b 04 24             	mov    (%rsp),%eax
    1a00:	69 c0 88 d3 00 00    	imul   $0xd388,%eax,%eax
    1a06:	89 04 24             	mov    %eax,(%rsp)
    1a09:	8b 44 24 1c          	mov    0x1c(%rsp),%eax
    1a0d:	69 c0 51 73 00 00    	imul   $0x7351,%eax,%eax
    1a13:	89 44 24 1c          	mov    %eax,0x1c(%rsp)
    1a17:	8b 44 24 24          	mov    0x24(%rsp),%eax
    1a1b:	69 c0 72 67 00 00    	imul   $0x6772,%eax,%eax
    1a21:	89 44 24 24          	mov    %eax,0x24(%rsp)
    1a25:	8b 44 24 04          	mov    0x4(%rsp),%eax
    1a29:	69 c0 be d0 00 00    	imul   $0xd0be,%eax,%eax
    1a2f:	89 44 24 04          	mov    %eax,0x4(%rsp)
    1a33:	8b 44 24 18          	mov    0x18(%rsp),%eax
    1a37:	69 c0 9b 99 00 00    	imul   $0x999b,%eax,%eax
    1a3d:	89 44 24 18          	mov    %eax,0x18(%rsp)
    1a41:	8b 04 24             	mov    (%rsp),%eax
    1a44:	69 c0 f7 7b 00 00    	imul   $0x7bf7,%eax,%eax
    1a4a:	89 04 24             	mov    %eax,(%rsp)
    1a4d:	8b 44 24 18          	mov    0x18(%rsp),%eax
    1a51:	69 c0 f3 a7 00 00    	imul   $0xa7f3,%eax,%eax
    1a57:	89 44 24 18          	mov    %eax,0x18(%rsp)
    1a5b:	8b 44 24 18          	mov    0x18(%rsp),%eax
    1a5f:	69 c0 d1 78 00 00    	imul   $0x78d1,%eax,%eax
    1a65:	89 44 24 18          	mov    %eax,0x18(%rsp)
    1a69:	8b 44 24 10          	mov    0x10(%rsp),%eax
    1a6d:	69 c0 ab f4 00 00    	imul   $0xf4ab,%eax,%eax
    1a73:	89 44 24 10          	mov    %eax,0x10(%rsp)
    1a77:	8b 44 24 14          	mov    0x14(%rsp),%eax
    1a7b:	69 c0 15 10 00 00    	imul   $0x1015,%eax,%eax
    1a81:	89 44 24 14          	mov    %eax,0x14(%rsp)
    1a85:	8b 44 24 04          	mov    0x4(%rsp),%eax
    1a89:	69 c0 0a ad 00 00    	imul   $0xad0a,%eax,%eax
    1a8f:	89 44 24 04          	mov    %eax,0x4(%rsp)
    1a93:	8b 44 24 14          	mov    0x14(%rsp),%eax
    1a97:	69 c0 58 b4 00 00    	imul   $0xb458,%eax,%eax
    1a9d:	89 44 24 14          	mov    %eax,0x14(%rsp)
    1aa1:	8b 04 24             	mov    (%rsp),%eax
    1aa4:	69 c0 fa 15 00 00    	imul   $0x15fa,%eax,%eax
    1aaa:	89 04 24             	mov    %eax,(%rsp)
    1aad:	8b 44 24 10          	mov    0x10(%rsp),%eax
    1ab1:	69 c0 0a f1 00 00    	imul   $0xf10a,%eax,%eax
    1ab7:	89 44 24 10          	mov    %eax,0x10(%rsp)
    1abb:	8b 44 24 24          	mov    0x24(%rsp),%eax
    1abf:	69 c0 fa 2c 00 00    	imul   $0x2cfa,%eax,%eax
    1ac5:	89 44 24 24          	mov    %eax,0x24(%rsp)
    1ac9:	8b 04 24             	mov    (%rsp),%eax
    1acc:	69 c0 ee f4 00 00    	imul   $0xf4ee,%eax,%eax
    1ad2:	89 04 24             	mov    %eax,(%rsp)
    1ad5:	8b 44 24 24          	mov    0x24(%rsp),%eax
    1ad9:	69 c0 f5 c3 00 00    	imul   $0xc3f5,%eax,%eax
    1adf:	89 44 24 24          	mov    %eax,0x24(%rsp)
    1ae3:	8b 44 24 10          	mov    0x10(%rsp),%eax
    1ae7:	69 c0 a1 0e 00 00    	imul   $0xea1,%eax,%eax
    1aed:	89 44 24 10          	mov    %eax,0x10(%rsp)
    1af1:	8b 44 24 1c          	mov    0x1c(%rsp),%eax
    1af5:	69 c0 46 fa 00 00    	imul   $0xfa46,%eax,%eax
    1afb:	89 44 24 1c          	mov    %eax,0x1c(%rsp)
    1aff:	8b 44 24 04          	mov    0x4(%rsp),%eax
    1b03:	69 c0 3d 1f 00 00    	imul   $0x1f3d,%eax,%eax
    1b09:	89 44 24 04          	mov    %eax,0x4(%rsp)
    1b0d:	8b 44 24 10          	mov    0x10(%rsp),%eax
    1b11:	69 c0 40 59 00 00    	imul   $0x5940,%eax,%eax
    1b17:	89 44 24 10          	mov    %eax,0x10(%rsp)
    1b1b:	8b 44 24 14          	mov    0x14(%rsp),%eax
    1b1f:	69 c0 a3 c4 00 00    	imul   $0xc4a3,%eax,%eax
    1b25:	89 44 24 14          	mov    %eax,0x14(%rsp)
    1b29:	8b 44 24 08          	mov    0x8(%rsp),%eax
    1b2d:	69 c0 4c db 00 00    	imul   $0xdb4c,%eax,%eax
    1b33:	89 44 24 08          	mov    %eax,0x8(%rsp)
    1b37:	8b 44 24 1c          	mov    0x1c(%rsp),%eax
    1b3b:	69 c0 dd 53 00 00    	imul   $0x53dd,%eax,%eax
    1b41:	89 44 24 1c          	mov    %eax,0x1c(%rsp)
    1b45:	8b 44 24 20          	mov    0x20(%rsp),%eax
    1b49:	69 c0 0c e2 00 00    	imul   $0xe20c,%eax,%eax
    1b4f:	89 44 24 20          	mov    %eax,0x20(%rsp)
    1b53:	8b 44 24 14          	mov    0x14(%rsp),%eax
    1b57:	69 c0 70 e9 00 00    	imul   $0xe970,%eax,%eax
    1b5d:	89 44 24 14          	mov    %eax,0x14(%rsp)
    1b61:	8b 44 24 18          	mov    0x18(%rsp),%eax
    1b65:	69 c0 43 02 00 00    	imul   $0x243,%eax,%eax
    1b6b:	89 44 24 18          	mov    %eax,0x18(%rsp)
    1b6f:	8b 44 24 24          	mov    0x24(%rsp),%eax
    1b73:	69 c0 e6 6a 00 00    	imul   $0x6ae6,%eax,%eax
    1b79:	89 44 24 24          	mov    %eax,0x24(%rsp)
    1b7d:	8b 44 24 18          	mov    0x18(%rsp),%eax
    1b81:	69 c0 a8 e7 00 00    	imul   $0xe7a8,%eax,%eax
    1b87:	89 44 24 18          	mov    %eax,0x18(%rsp)
    1b8b:	8b 44 24 18          	mov    0x18(%rsp),%eax
    1b8f:	69 c0 57 c0 00 00    	imul   $0xc057,%eax,%eax
    1b95:	89 44 24 18          	mov    %eax,0x18(%rsp)
    1b99:	8b 44 24 1c          	mov    0x1c(%rsp),%eax
    1b9d:	69 c0 30 33 00 00    	imul   $0x3330,%eax,%eax
    1ba3:	89 44 24 1c          	mov    %eax,0x1c(%rsp)
    1ba7:	8b 44 24 24          	mov    0x24(%rsp),%eax
    1bab:	69 c0 25 15 00 00    	imul   $0x1525,%eax,%eax
    1bb1:	89 44 24 24          	mov    %eax,0x24(%rsp)
    1bb5:	8b 44 24 18          	mov    0x18(%rsp),%eax
    1bb9:	69 c0 84 1d 00 00    	imul   $0x1d84,%eax,%eax
    1bbf:	89 44 24 18          	mov    %eax,0x18(%rsp)
    1bc3:	8b 44 24 20          	mov    0x20(%rsp),%eax
    1bc7:	69 c0 8d 22 00 00    	imul   $0x228d,%eax,%eax
    1bcd:	89 44 24 20          	mov    %eax,0x20(%rsp)
    1bd1:	8b 44 24 08          	mov    0x8(%rsp),%eax
    1bd5:	69 c0 26 03 00 00    	imul   $0x326,%eax,%eax
    1bdb:	89 44 24 08          	mov    %eax,0x8(%rsp)
    1bdf:	8b 04 24             	mov    (%rsp),%eax
    1be2:	69 c0 ac ab 00 00    	imul   $0xabac,%eax,%eax
    1be8:	89 04 24             	mov    %eax,(%rsp)
    1beb:	8b 44 24 0c          	mov    0xc(%rsp),%eax
    1bef:	69 c0 fe dc 00 00    	imul   $0xdcfe,%eax,%eax
    1bf5:	89 44 24 0c          	mov    %eax,0xc(%rsp)
    1bf9:	8b 44 24 20          	mov    0x20(%rsp),%eax
    1bfd:	69 c0 99 5d 00 00    	imul   $0x5d99,%eax,%eax
    1c03:	89 44 24 20          	mov    %eax,0x20(%rsp)
    1c07:	8b 44 24 20          	mov    0x20(%rsp),%eax
    1c0b:	69 c0 c4 ad 00 00    	imul   $0xadc4,%eax,%eax
    1c11:	89 44 24 20          	mov    %eax,0x20(%rsp)
    1c15:	8b 44 24 18          	mov    0x18(%rsp),%eax
    1c19:	69 c0 41 88 00 00    	imul   $0x8841,%eax,%eax
    1c1f:	89 44 24 18          	mov    %eax,0x18(%rsp)
    1c23:	8b 04 24             	mov    (%rsp),%eax
    1c26:	69 c0 69 15 00 00    	imul   $0x1569,%eax,%eax
    1c2c:	89 04 24             	mov    %eax,(%rsp)
    1c2f:	8b 04 24             	mov    (%rsp),%eax
    1c32:	69 c0 e7 1e 00 00    	imul   $0x1ee7,%eax,%eax
    1c38:	89 04 24             	mov    %eax,(%rsp)
    1c3b:	8b 44 24 10          	mov    0x10(%rsp),%eax
    1c3f:	69 c0 7a 0f 00 00    	imul   $0xf7a,%eax,%eax
    1c45:	89 44 24 10          	mov    %eax,0x10(%rsp)
    1c49:	8b 44 24 1c          	mov    0x1c(%rsp),%eax
    1c4d:	69 c0 ea 2f 00 00    	imul   $0x2fea,%eax,%eax
    1c53:	89 44 24 1c          	mov    %eax,0x1c(%rsp)
    1c57:	8b 44 24 24          	mov    0x24(%rsp),%eax
    1c5b:	69 c0 be e5 00 00    	imul   $0xe5be,%eax,%eax
    1c61:	89 44 24 24          	mov    %eax,0x24(%rsp)
    1c65:	8b 04 24             	mov    (%rsp),%eax
    1c68:	69 c0 c5 0b 00 00    	imul   $0xbc5,%eax,%eax
    1c6e:	89 04 24             	mov    %eax,(%rsp)
    1c71:	8b 44 24 10          	mov    0x10(%rsp),%eax
    1c75:	69 c0 87 a5 00 00    	imul   $0xa587,%eax,%eax
    1c7b:	89 44 24 10          	mov    %eax,0x10(%rsp)
    1c7f:	8b 44 24 1c          	mov    0x1c(%rsp),%eax
    1c83:	69 c0 14 10 00 00    	imul   $0x1014,%eax,%eax
    1c89:	89 44 24 1c          	mov    %eax,0x1c(%rsp)
    1c8d:	8b 44 24 1c          	mov    0x1c(%rsp),%eax
    1c91:	69 c0 b1 44 00 00    	imul   $0x44b1,%eax,%eax
    1c97:	89 44 24 1c          	mov    %eax,0x1c(%rsp)
    1c9b:	8b 44 24 1c          	mov    0x1c(%rsp),%eax
    1c9f:	69 c0 d6 da 00 00    	imul   $0xdad6,%eax,%eax
    1ca5:	89 44 24 1c          	mov    %eax,0x1c(%rsp)
    1ca9:	8b 44 24 20          	mov    0x20(%rsp),%eax
    1cad:	69 c0 6c 74 00 00    	imul   $0x746c,%eax,%eax
    1cb3:	89 44 24 20          	mov    %eax,0x20(%rsp)
    1cb7:	8b 44 24 20          	mov    0x20(%rsp),%eax
    1cbb:	69 c0 3d a4 00 00    	imul   $0xa43d,%eax,%eax
    1cc1:	89 44 24 20          	mov    %eax,0x20(%rsp)
    1cc5:	8b 44 24 10          	mov    0x10(%rsp),%eax
    1cc9:	69 c0 d1 f6 00 00    	imul   $0xf6d1,%eax,%eax
    1ccf:	89 44 24 10          	mov    %eax,0x10(%rsp)
    1cd3:	8b 44 24 24          	mov    0x24(%rsp),%eax
    1cd7:	69 c0 b5 09 00 00    	imul   $0x9b5,%eax,%eax
    1cdd:	89 44 24 24          	mov    %eax,0x24(%rsp)
    1ce1:	8b 44 24 10          	mov    0x10(%rsp),%eax
    1ce5:	69 c0 4c b3 00 00    	imul   $0xb34c,%eax,%eax
    1ceb:	89 44 24 10          	mov    %eax,0x10(%rsp)
    1cef:	8b 44 24 04          	mov    0x4(%rsp),%eax
    1cf3:	69 c0 66 34 00 00    	imul   $0x3466,%eax,%eax
    1cf9:	89 44 24 04          	mov    %eax,0x4(%rsp)
    1cfd:	8b 44 24 24          	mov    0x24(%rsp),%eax
    1d01:	69 c0 a8 03 00 00    	imul   $0x3a8,%eax,%eax
    1d07:	89 44 24 24          	mov    %eax,0x24(%rsp)
    1d0b:	8b 44 24 0c          	mov    0xc(%rsp),%eax
    1d0f:	69 c0 62 e0 00 00    	imul   $0xe062,%eax,%eax
    1d15:	89 44 24 0c          	mov    %eax,0xc(%rsp)
    1d19:	8b 44 24 20          	mov    0x20(%rsp),%eax
    1d1d:	69 c0 1b dd 00 00    	imul   $0xdd1b,%eax,%eax
    1d23:	89 44 24 20          	mov    %eax,0x20(%rsp)
    1d27:	8b 44 24 20          	mov    0x20(%rsp),%eax
    1d2b:	69 c0 46 0a 00 00    	imul   $0xa46,%eax,%eax
    1d31:	89 44 24 20          	mov    %eax,0x20(%rsp)
    1d35:	8b 44 24 14          	mov    0x14(%rsp),%eax
    1d39:	69 c0 8d 00 00 00    	imul   $0x8d,%eax,%eax
    1d3f:	89 44 24 14          	mov    %eax,0x14(%rsp)
    1d43:	8b 44 24 18          	mov    0x18(%rsp),%eax
    1d47:	69 c0 c8 db 00 00    	imul   $0xdbc8,%eax,%eax
    1d4d:	89 44 24 18          	mov    %eax,0x18(%rsp)
    1d51:	8b 44 24 10          	mov    0x10(%rsp),%eax
    1d55:	69 c0 f6 36 00 00    	imul   $0x36f6,%eax,%eax
    1d5b:	89 44 24 10          	mov    %eax,0x10(%rsp)
    1d5f:	8b 44 24 0c          	mov    0xc(%rsp),%eax
    1d63:	69 c0 20 69 00 00    	imul   $0x6920,%eax,%eax
    1d69:	89 44 24 0c          	mov    %eax,0xc(%rsp)
    1d6d:	8b 44 24 08          	mov    0x8(%rsp),%eax
    1d71:	69 c0 7e 1e 00 00    	imul   $0x1e7e,%eax,%eax
    1d77:	89 44 24 08          	mov    %eax,0x8(%rsp)
    1d7b:	8b 44 24 18          	mov    0x18(%rsp),%eax
    1d7f:	69 c0 7e c3 00 00    	imul   $0xc37e,%eax,%eax
    1d85:	89 44 24 18          	mov    %eax,0x18(%rsp)
    1d89:	8b 44 24 24          	mov    0x24(%rsp),%eax
    1d8d:	69 c0 78 ca 00 00    	imul   $0xca78,%eax,%eax
    1d93:	89 44 24 24          	mov    %eax,0x24(%rsp)
    1d97:	8b 44 24 04          	mov    0x4(%rsp),%eax
    1d9b:	69 c0 54 e4 00 00    	imul   $0xe454,%eax,%eax
    1da1:	89 44 24 04          	mov    %eax,0x4(%rsp)
    1da5:	8b 44 24 04          	mov    0x4(%rsp),%eax
    1da9:	69 c0 91 69 00 00    	imul   $0x6991,%eax,%eax
    1daf:	89 44 24 04          	mov    %eax,0x4(%rsp)
    1db3:	8b 44 24 1c          	mov    0x1c(%rsp),%eax
    1db7:	69 c0 df 65 00 00    	imul   $0x65df,%eax,%eax
    1dbd:	89 44 24 1c          	mov    %eax,0x1c(%rsp)
    1dc1:	8b 44 24 24          	mov    0x24(%rsp),%eax
    1dc5:	c1 e0 0f             	shl    $0xf,%eax
    1dc8:	89 44 24 24          	mov    %eax,0x24(%rsp)
    1dcc:	8b 44 24 08          	mov    0x8(%rsp),%eax
    1dd0:	69 c0 93 e5 00 00    	imul   $0xe593,%eax,%eax
    1dd6:	89 44 24 08          	mov    %eax,0x8(%rsp)
    1dda:	8b 44 24 14          	mov    0x14(%rsp),%eax
    1dde:	69 c0 92 ed 00 00    	imul   $0xed92,%eax,%eax
    1de4:	89 44 24 14          	mov    %eax,0x14(%rsp)
    1de8:	8b 44 24 18          	mov    0x18(%rsp),%eax
    1dec:	69 c0 cb 96 00 00    	imul   $0x96cb,%eax,%eax
    1df2:	89 44 24 18          	mov    %eax,0x18(%rsp)
    1df6:	8b 44 24 1c          	mov    0x1c(%rsp),%eax
    1dfa:	69 c0 41 d6 00 00    	imul   $0xd641,%eax,%eax
    1e00:	89 44 24 1c          	mov    %eax,0x1c(%rsp)
    1e04:	8b 04 24             	mov    (%rsp),%eax
    1e07:	69 c0 88 8d 00 00    	imul   $0x8d88,%eax,%eax
    1e0d:	89 04 24             	mov    %eax,(%rsp)
    1e10:	8b 44 24 18          	mov    0x18(%rsp),%eax
    1e14:	69 c0 1d b7 00 00    	imul   $0xb71d,%eax,%eax
    1e1a:	89 44 24 18          	mov    %eax,0x18(%rsp)
    1e1e:	8b 44 24 1c          	mov    0x1c(%rsp),%eax
    1e22:	69 c0 e3 7c 00 00    	imul   $0x7ce3,%eax,%eax
    1e28:	89 44 24 1c          	mov    %eax,0x1c(%rsp)
    1e2c:	8b 44 24 04          	mov    0x4(%rsp),%eax
    1e30:	69 c0 2d 55 00 00    	imul   $0x552d,%eax,%eax
    1e36:	89 44 24 04          	mov    %eax,0x4(%rsp)
    1e3a:	b8 00 00 00 00       	mov    $0x0,%eax
    1e3f:	ba 00 00 00 00       	mov    $0x0,%edx
    1e44:	83 f8 09             	cmp    $0x9,%eax
    1e47:	77 0c                	ja     1e55 <scramble+0x4e5>
    1e49:	89 c1                	mov    %eax,%ecx
    1e4b:	8b 0c 8c             	mov    (%rsp,%rcx,4),%ecx
    1e4e:	01 ca                	add    %ecx,%edx
    1e50:	83 c0 01             	add    $0x1,%eax
    1e53:	eb ef                	jmp    1e44 <scramble+0x4d4>
    1e55:	48 8b 44 24 28       	mov    0x28(%rsp),%rax
    1e5a:	64 48 33 04 25 28 00 	xor    %fs:0x28,%rax
    1e61:	00 00 
    1e63:	75 07                	jne    1e6c <scramble+0x4fc>
    1e65:	89 d0                	mov    %edx,%eax
    1e67:	48 83 c4 38          	add    $0x38,%rsp
    1e6b:	c3                   	retq   
    1e6c:	e8 4f f4 ff ff       	callq  12c0 <__stack_chk_fail@plt>

0000000000001e71 <getbuf>:
    1e71:	f3 0f 1e fa          	endbr64 
    1e75:	48 83 ec 38          	sub    $0x38,%rsp
    1e79:	48 89 e7             	mov    %rsp,%rdi
    1e7c:	e8 b5 02 00 00       	callq  2136 <Gets>
    1e81:	b8 01 00 00 00       	mov    $0x1,%eax
    1e86:	48 83 c4 38          	add    $0x38,%rsp
    1e8a:	c3                   	retq   

0000000000001e8b <touch1>:
    1e8b:	f3 0f 1e fa          	endbr64 
    1e8f:	50                   	push   %rax
    1e90:	58                   	pop    %rax
    1e91:	48 83 ec 08          	sub    $0x8,%rsp
    1e95:	c7 05 21 55 00 00 01 	movl   $0x1,0x5521(%rip)        # 73c0 <vlevel>
    1e9c:	00 00 00 
    1e9f:	48 8d 3d f6 23 00 00 	lea    0x23f6(%rip),%rdi        # 429c <_IO_stdin_used+0x29c>
    1ea6:	e8 f5 f3 ff ff       	callq  12a0 <puts@plt>
    1eab:	bf 01 00 00 00       	mov    $0x1,%edi
    1eb0:	e8 d0 03 00 00       	callq  2285 <validate>
    1eb5:	bf 00 00 00 00       	mov    $0x0,%edi
    1eba:	e8 41 f5 ff ff       	callq  1400 <exit@plt>

0000000000001ebf <touch2>:
    1ebf:	f3 0f 1e fa          	endbr64 
    1ec3:	50                   	push   %rax
    1ec4:	58                   	pop    %rax
    1ec5:	48 83 ec 08          	sub    $0x8,%rsp
    1ec9:	89 fa                	mov    %edi,%edx
    1ecb:	c7 05 eb 54 00 00 02 	movl   $0x2,0x54eb(%rip)        # 73c0 <vlevel>
    1ed2:	00 00 00 
    1ed5:	39 3d ed 54 00 00    	cmp    %edi,0x54ed(%rip)        # 73c8 <cookie>
    1edb:	74 2a                	je     1f07 <touch2+0x48>
    1edd:	48 8d 35 04 24 00 00 	lea    0x2404(%rip),%rsi        # 42e8 <_IO_stdin_used+0x2e8>
    1ee4:	bf 01 00 00 00       	mov    $0x1,%edi
    1ee9:	b8 00 00 00 00       	mov    $0x0,%eax
    1eee:	e8 bd f4 ff ff       	callq  13b0 <__printf_chk@plt>
    1ef3:	bf 02 00 00 00       	mov    $0x2,%edi
    1ef8:	e8 5c 04 00 00       	callq  2359 <fail>
    1efd:	bf 00 00 00 00       	mov    $0x0,%edi
    1f02:	e8 f9 f4 ff ff       	callq  1400 <exit@plt>
    1f07:	48 8d 35 b2 23 00 00 	lea    0x23b2(%rip),%rsi        # 42c0 <_IO_stdin_used+0x2c0>
    1f0e:	bf 01 00 00 00       	mov    $0x1,%edi
    1f13:	b8 00 00 00 00       	mov    $0x0,%eax
    1f18:	e8 93 f4 ff ff       	callq  13b0 <__printf_chk@plt>
    1f1d:	bf 02 00 00 00       	mov    $0x2,%edi
    1f22:	e8 5e 03 00 00       	callq  2285 <validate>
    1f27:	eb d4                	jmp    1efd <touch2+0x3e>

0000000000001f29 <hexmatch>:
    1f29:	f3 0f 1e fa          	endbr64 
    1f2d:	41 55                	push   %r13
    1f2f:	41 54                	push   %r12
    1f31:	55                   	push   %rbp
    1f32:	53                   	push   %rbx
    1f33:	48 81 ec 88 00 00 00 	sub    $0x88,%rsp
    1f3a:	89 fd                	mov    %edi,%ebp
    1f3c:	48 89 f3             	mov    %rsi,%rbx
    1f3f:	41 bc 28 00 00 00    	mov    $0x28,%r12d
    1f45:	64 49 8b 04 24       	mov    %fs:(%r12),%rax
    1f4a:	48 89 44 24 78       	mov    %rax,0x78(%rsp)
    1f4f:	31 c0                	xor    %eax,%eax
    1f51:	e8 2a f4 ff ff       	callq  1380 <random@plt>
    1f56:	48 89 c1             	mov    %rax,%rcx
    1f59:	48 ba 0b d7 a3 70 3d 	movabs $0xa3d70a3d70a3d70b,%rdx
    1f60:	0a d7 a3 
    1f63:	48 f7 ea             	imul   %rdx
    1f66:	48 01 ca             	add    %rcx,%rdx
    1f69:	48 c1 fa 06          	sar    $0x6,%rdx
    1f6d:	48 89 c8             	mov    %rcx,%rax
    1f70:	48 c1 f8 3f          	sar    $0x3f,%rax
    1f74:	48 29 c2             	sub    %rax,%rdx
    1f77:	48 8d 04 92          	lea    (%rdx,%rdx,4),%rax
    1f7b:	48 8d 04 80          	lea    (%rax,%rax,4),%rax
    1f7f:	48 c1 e0 02          	shl    $0x2,%rax
    1f83:	48 29 c1             	sub    %rax,%rcx
    1f86:	4c 8d 2c 0c          	lea    (%rsp,%rcx,1),%r13
    1f8a:	41 89 e8             	mov    %ebp,%r8d
    1f8d:	48 8d 0d 25 23 00 00 	lea    0x2325(%rip),%rcx        # 42b9 <_IO_stdin_used+0x2b9>
    1f94:	48 c7 c2 ff ff ff ff 	mov    $0xffffffffffffffff,%rdx
    1f9b:	be 01 00 00 00       	mov    $0x1,%esi
    1fa0:	4c 89 ef             	mov    %r13,%rdi
    1fa3:	b8 00 00 00 00       	mov    $0x0,%eax
    1fa8:	e8 93 f4 ff ff       	callq  1440 <__sprintf_chk@plt>
    1fad:	ba 09 00 00 00       	mov    $0x9,%edx
    1fb2:	4c 89 ee             	mov    %r13,%rsi
    1fb5:	48 89 df             	mov    %rbx,%rdi
    1fb8:	e8 c3 f2 ff ff       	callq  1280 <strncmp@plt>
    1fbd:	85 c0                	test   %eax,%eax
    1fbf:	0f 94 c0             	sete   %al
    1fc2:	48 8b 5c 24 78       	mov    0x78(%rsp),%rbx
    1fc7:	64 49 33 1c 24       	xor    %fs:(%r12),%rbx
    1fcc:	75 11                	jne    1fdf <hexmatch+0xb6>
    1fce:	0f b6 c0             	movzbl %al,%eax
    1fd1:	48 81 c4 88 00 00 00 	add    $0x88,%rsp
    1fd8:	5b                   	pop    %rbx
    1fd9:	5d                   	pop    %rbp
    1fda:	41 5c                	pop    %r12
    1fdc:	41 5d                	pop    %r13
    1fde:	c3                   	retq   
    1fdf:	e8 dc f2 ff ff       	callq  12c0 <__stack_chk_fail@plt>

0000000000001fe4 <touch3>:
    1fe4:	f3 0f 1e fa          	endbr64 
    1fe8:	53                   	push   %rbx
    1fe9:	48 89 fb             	mov    %rdi,%rbx
    1fec:	c7 05 ca 53 00 00 03 	movl   $0x3,0x53ca(%rip)        # 73c0 <vlevel>
    1ff3:	00 00 00 
    1ff6:	48 89 fe             	mov    %rdi,%rsi
    1ff9:	8b 3d c9 53 00 00    	mov    0x53c9(%rip),%edi        # 73c8 <cookie>
    1fff:	e8 25 ff ff ff       	callq  1f29 <hexmatch>
    2004:	85 c0                	test   %eax,%eax
    2006:	74 2d                	je     2035 <touch3+0x51>
    2008:	48 89 da             	mov    %rbx,%rdx
    200b:	48 8d 35 fe 22 00 00 	lea    0x22fe(%rip),%rsi        # 4310 <_IO_stdin_used+0x310>
    2012:	bf 01 00 00 00       	mov    $0x1,%edi
    2017:	b8 00 00 00 00       	mov    $0x0,%eax
    201c:	e8 8f f3 ff ff       	callq  13b0 <__printf_chk@plt>
    2021:	bf 03 00 00 00       	mov    $0x3,%edi
    2026:	e8 5a 02 00 00       	callq  2285 <validate>
    202b:	bf 00 00 00 00       	mov    $0x0,%edi
    2030:	e8 cb f3 ff ff       	callq  1400 <exit@plt>
    2035:	48 89 da             	mov    %rbx,%rdx
    2038:	48 8d 35 f9 22 00 00 	lea    0x22f9(%rip),%rsi        # 4338 <_IO_stdin_used+0x338>
    203f:	bf 01 00 00 00       	mov    $0x1,%edi
    2044:	b8 00 00 00 00       	mov    $0x0,%eax
    2049:	e8 62 f3 ff ff       	callq  13b0 <__printf_chk@plt>
    204e:	bf 03 00 00 00       	mov    $0x3,%edi
    2053:	e8 01 03 00 00       	callq  2359 <fail>
    2058:	eb d1                	jmp    202b <touch3+0x47>

000000000000205a <test>:
    205a:	f3 0f 1e fa          	endbr64 
    205e:	48 83 ec 08          	sub    $0x8,%rsp
    2062:	b8 00 00 00 00       	mov    $0x0,%eax
    2067:	e8 05 fe ff ff       	callq  1e71 <getbuf>
    206c:	89 c2                	mov    %eax,%edx
    206e:	48 8d 35 eb 22 00 00 	lea    0x22eb(%rip),%rsi        # 4360 <_IO_stdin_used+0x360>
    2075:	bf 01 00 00 00       	mov    $0x1,%edi
    207a:	b8 00 00 00 00       	mov    $0x0,%eax
    207f:	e8 2c f3 ff ff       	callq  13b0 <__printf_chk@plt>
    2084:	48 83 c4 08          	add    $0x8,%rsp
    2088:	c3                   	retq   

0000000000002089 <save_char>:
    2089:	8b 05 55 5f 00 00    	mov    0x5f55(%rip),%eax        # 7fe4 <gets_cnt>
    208f:	3d ff 03 00 00       	cmp    $0x3ff,%eax
    2094:	7f 4a                	jg     20e0 <save_char+0x57>
    2096:	89 f9                	mov    %edi,%ecx
    2098:	c0 e9 04             	shr    $0x4,%cl
    209b:	8d 14 40             	lea    (%rax,%rax,2),%edx
    209e:	4c 8d 05 2b 25 00 00 	lea    0x252b(%rip),%r8        # 45d0 <trans_char>
    20a5:	83 e1 0f             	and    $0xf,%ecx
    20a8:	45 0f b6 0c 08       	movzbl (%r8,%rcx,1),%r9d
    20ad:	48 8d 0d 2c 53 00 00 	lea    0x532c(%rip),%rcx        # 73e0 <gets_buf>
    20b4:	48 63 f2             	movslq %edx,%rsi
    20b7:	44 88 0c 31          	mov    %r9b,(%rcx,%rsi,1)
    20bb:	8d 72 01             	lea    0x1(%rdx),%esi
    20be:	83 e7 0f             	and    $0xf,%edi
    20c1:	41 0f b6 3c 38       	movzbl (%r8,%rdi,1),%edi
    20c6:	48 63 f6             	movslq %esi,%rsi
    20c9:	40 88 3c 31          	mov    %dil,(%rcx,%rsi,1)
    20cd:	83 c2 02             	add    $0x2,%edx
    20d0:	48 63 d2             	movslq %edx,%rdx
    20d3:	c6 04 11 20          	movb   $0x20,(%rcx,%rdx,1)
    20d7:	83 c0 01             	add    $0x1,%eax
    20da:	89 05 04 5f 00 00    	mov    %eax,0x5f04(%rip)        # 7fe4 <gets_cnt>
    20e0:	c3                   	retq   

00000000000020e1 <save_term>:
    20e1:	8b 05 fd 5e 00 00    	mov    0x5efd(%rip),%eax        # 7fe4 <gets_cnt>
    20e7:	8d 04 40             	lea    (%rax,%rax,2),%eax
    20ea:	48 98                	cltq   
    20ec:	48 8d 15 ed 52 00 00 	lea    0x52ed(%rip),%rdx        # 73e0 <gets_buf>
    20f3:	c6 04 02 00          	movb   $0x0,(%rdx,%rax,1)
    20f7:	c3                   	retq   

00000000000020f8 <check_fail>:
    20f8:	f3 0f 1e fa          	endbr64 
    20fc:	50                   	push   %rax
    20fd:	58                   	pop    %rax
    20fe:	48 83 ec 08          	sub    $0x8,%rsp
    2102:	0f be 15 df 5e 00 00 	movsbl 0x5edf(%rip),%edx        # 7fe8 <target_prefix>
    2109:	4c 8d 05 d0 52 00 00 	lea    0x52d0(%rip),%r8        # 73e0 <gets_buf>
    2110:	8b 0d a6 52 00 00    	mov    0x52a6(%rip),%ecx        # 73bc <check_level>
    2116:	48 8d 35 66 22 00 00 	lea    0x2266(%rip),%rsi        # 4383 <_IO_stdin_used+0x383>
    211d:	bf 01 00 00 00       	mov    $0x1,%edi
    2122:	b8 00 00 00 00       	mov    $0x0,%eax
    2127:	e8 84 f2 ff ff       	callq  13b0 <__printf_chk@plt>
    212c:	bf 01 00 00 00       	mov    $0x1,%edi
    2131:	e8 ca f2 ff ff       	callq  1400 <exit@plt>

0000000000002136 <Gets>:
    2136:	f3 0f 1e fa          	endbr64 
    213a:	41 54                	push   %r12
    213c:	55                   	push   %rbp
    213d:	53                   	push   %rbx
    213e:	49 89 fc             	mov    %rdi,%r12
    2141:	c7 05 99 5e 00 00 00 	movl   $0x0,0x5e99(%rip)        # 7fe4 <gets_cnt>
    2148:	00 00 00 
    214b:	48 89 fb             	mov    %rdi,%rbx
    214e:	48 8b 3d 5b 52 00 00 	mov    0x525b(%rip),%rdi        # 73b0 <infile>
    2155:	e8 d6 f2 ff ff       	callq  1430 <getc@plt>
    215a:	83 f8 ff             	cmp    $0xffffffff,%eax
    215d:	74 18                	je     2177 <Gets+0x41>
    215f:	83 f8 0a             	cmp    $0xa,%eax
    2162:	74 13                	je     2177 <Gets+0x41>
    2164:	48 8d 6b 01          	lea    0x1(%rbx),%rbp
    2168:	88 03                	mov    %al,(%rbx)
    216a:	0f b6 f8             	movzbl %al,%edi
    216d:	e8 17 ff ff ff       	callq  2089 <save_char>
    2172:	48 89 eb             	mov    %rbp,%rbx
    2175:	eb d7                	jmp    214e <Gets+0x18>
    2177:	c6 03 00             	movb   $0x0,(%rbx)
    217a:	b8 00 00 00 00       	mov    $0x0,%eax
    217f:	e8 5d ff ff ff       	callq  20e1 <save_term>
    2184:	4c 89 e0             	mov    %r12,%rax
    2187:	5b                   	pop    %rbx
    2188:	5d                   	pop    %rbp
    2189:	41 5c                	pop    %r12
    218b:	c3                   	retq   

000000000000218c <notify_server>:
    218c:	f3 0f 1e fa          	endbr64 
    2190:	53                   	push   %rbx
    2191:	48 81 ec 00 10 00 00 	sub    $0x1000,%rsp
    2198:	48 83 0c 24 00       	orq    $0x0,(%rsp)
    219d:	48 81 ec 00 10 00 00 	sub    $0x1000,%rsp
    21a4:	48 83 0c 24 00       	orq    $0x0,(%rsp)
    21a9:	48 83 ec 10          	sub    $0x10,%rsp
    21ad:	64 48 8b 04 25 28 00 	mov    %fs:0x28,%rax
    21b4:	00 00 
    21b6:	48 89 84 24 08 20 00 	mov    %rax,0x2008(%rsp)
    21bd:	00 
    21be:	31 c0                	xor    %eax,%eax
    21c0:	83 3d 05 52 00 00 00 	cmpl   $0x0,0x5205(%rip)        # 73cc <is_checker>
    21c7:	0f 85 8e 00 00 00    	jne    225b <notify_server+0xcf>
    21cd:	81 3d 0d 5e 00 00 9c 	cmpl   $0x1f9c,0x5e0d(%rip)        # 7fe4 <gets_cnt>
    21d4:	1f 00 00 
    21d7:	7f 18                	jg     21f1 <notify_server+0x65>
    21d9:	0f be 05 08 5e 00 00 	movsbl 0x5e08(%rip),%eax        # 7fe8 <target_prefix>
    21e0:	83 3d d1 51 00 00 00 	cmpl   $0x0,0x51d1(%rip)        # 73b8 <notify>
    21e7:	74 23                	je     220c <notify_server+0x80>
    21e9:	8b 15 d5 51 00 00    	mov    0x51d5(%rip),%edx        # 73c4 <authkey>
    21ef:	eb 20                	jmp    2211 <notify_server+0x85>
    21f1:	48 8d 35 70 22 00 00 	lea    0x2270(%rip),%rsi        # 4468 <_IO_stdin_used+0x468>
    21f8:	bf 01 00 00 00       	mov    $0x1,%edi
    21fd:	e8 ae f1 ff ff       	callq  13b0 <__printf_chk@plt>
    2202:	bf 01 00 00 00       	mov    $0x1,%edi
    2207:	e8 f4 f1 ff ff       	callq  1400 <exit@plt>
    220c:	ba ff ff ff ff       	mov    $0xffffffff,%edx
    2211:	85 ff                	test   %edi,%edi
    2213:	74 62                	je     2277 <notify_server+0xeb>
    2215:	48 8d 1d 82 21 00 00 	lea    0x2182(%rip),%rbx        # 439e <_IO_stdin_used+0x39e>
    221c:	48 89 e7             	mov    %rsp,%rdi
    221f:	48 8d 0d ba 51 00 00 	lea    0x51ba(%rip),%rcx        # 73e0 <gets_buf>
    2226:	51                   	push   %rcx
    2227:	56                   	push   %rsi
    2228:	50                   	push   %rax
    2229:	52                   	push   %rdx
    222a:	49 89 d9             	mov    %rbx,%r9
    222d:	44 8b 05 dc 4d 00 00 	mov    0x4ddc(%rip),%r8d        # 7010 <target_id>
    2234:	48 8d 0d 68 21 00 00 	lea    0x2168(%rip),%rcx        # 43a3 <_IO_stdin_used+0x3a3>
    223b:	ba 00 20 00 00       	mov    $0x2000,%edx
    2240:	be 01 00 00 00       	mov    $0x1,%esi
    2245:	b8 00 00 00 00       	mov    $0x0,%eax
    224a:	e8 f1 f1 ff ff       	callq  1440 <__sprintf_chk@plt>
    224f:	48 83 c4 20          	add    $0x20,%rsp
    2253:	48 89 df             	mov    %rbx,%rdi
    2256:	e8 45 f0 ff ff       	callq  12a0 <puts@plt>
    225b:	48 8b 84 24 08 20 00 	mov    0x2008(%rsp),%rax
    2262:	00 
    2263:	64 48 33 04 25 28 00 	xor    %fs:0x28,%rax
    226a:	00 00 
    226c:	75 12                	jne    2280 <notify_server+0xf4>
    226e:	48 81 c4 10 20 00 00 	add    $0x2010,%rsp
    2275:	5b                   	pop    %rbx
    2276:	c3                   	retq   
    2277:	48 8d 1d 1b 21 00 00 	lea    0x211b(%rip),%rbx        # 4399 <_IO_stdin_used+0x399>
    227e:	eb 9c                	jmp    221c <notify_server+0x90>
    2280:	e8 3b f0 ff ff       	callq  12c0 <__stack_chk_fail@plt>

0000000000002285 <validate>:
    2285:	f3 0f 1e fa          	endbr64 
    2289:	53                   	push   %rbx
    228a:	89 fb                	mov    %edi,%ebx
    228c:	83 3d 39 51 00 00 00 	cmpl   $0x0,0x5139(%rip)        # 73cc <is_checker>
    2293:	74 72                	je     2307 <validate+0x82>
    2295:	39 3d 25 51 00 00    	cmp    %edi,0x5125(%rip)        # 73c0 <vlevel>
    229b:	75 32                	jne    22cf <validate+0x4a>
    229d:	8b 15 19 51 00 00    	mov    0x5119(%rip),%edx        # 73bc <check_level>
    22a3:	39 fa                	cmp    %edi,%edx
    22a5:	75 3e                	jne    22e5 <validate+0x60>
    22a7:	0f be 15 3a 5d 00 00 	movsbl 0x5d3a(%rip),%edx        # 7fe8 <target_prefix>
    22ae:	4c 8d 05 2b 51 00 00 	lea    0x512b(%rip),%r8        # 73e0 <gets_buf>
    22b5:	89 f9                	mov    %edi,%ecx
    22b7:	48 8d 35 1f 21 00 00 	lea    0x211f(%rip),%rsi        # 43dd <_IO_stdin_used+0x3dd>
    22be:	bf 01 00 00 00       	mov    $0x1,%edi
    22c3:	b8 00 00 00 00       	mov    $0x0,%eax
    22c8:	e8 e3 f0 ff ff       	callq  13b0 <__printf_chk@plt>
    22cd:	5b                   	pop    %rbx
    22ce:	c3                   	retq   
    22cf:	48 8d 3d e9 20 00 00 	lea    0x20e9(%rip),%rdi        # 43bf <_IO_stdin_used+0x3bf>
    22d6:	e8 c5 ef ff ff       	callq  12a0 <puts@plt>
    22db:	b8 00 00 00 00       	mov    $0x0,%eax
    22e0:	e8 13 fe ff ff       	callq  20f8 <check_fail>
    22e5:	89 f9                	mov    %edi,%ecx
    22e7:	48 8d 35 aa 21 00 00 	lea    0x21aa(%rip),%rsi        # 4498 <_IO_stdin_used+0x498>
    22ee:	bf 01 00 00 00       	mov    $0x1,%edi
    22f3:	b8 00 00 00 00       	mov    $0x0,%eax
    22f8:	e8 b3 f0 ff ff       	callq  13b0 <__printf_chk@plt>
    22fd:	b8 00 00 00 00       	mov    $0x0,%eax
    2302:	e8 f1 fd ff ff       	callq  20f8 <check_fail>
    2307:	39 3d b3 50 00 00    	cmp    %edi,0x50b3(%rip)        # 73c0 <vlevel>
    230d:	74 1a                	je     2329 <validate+0xa4>
    230f:	48 8d 3d a9 20 00 00 	lea    0x20a9(%rip),%rdi        # 43bf <_IO_stdin_used+0x3bf>
    2316:	e8 85 ef ff ff       	callq  12a0 <puts@plt>
    231b:	89 de                	mov    %ebx,%esi
    231d:	bf 00 00 00 00       	mov    $0x0,%edi
    2322:	e8 65 fe ff ff       	callq  218c <notify_server>
    2327:	eb a4                	jmp    22cd <validate+0x48>
    2329:	0f be 0d b8 5c 00 00 	movsbl 0x5cb8(%rip),%ecx        # 7fe8 <target_prefix>
    2330:	89 fa                	mov    %edi,%edx
    2332:	48 8d 35 87 21 00 00 	lea    0x2187(%rip),%rsi        # 44c0 <_IO_stdin_used+0x4c0>
    2339:	bf 01 00 00 00       	mov    $0x1,%edi
    233e:	b8 00 00 00 00       	mov    $0x0,%eax
    2343:	e8 68 f0 ff ff       	callq  13b0 <__printf_chk@plt>
    2348:	89 de                	mov    %ebx,%esi
    234a:	bf 01 00 00 00       	mov    $0x1,%edi
    234f:	e8 38 fe ff ff       	callq  218c <notify_server>
    2354:	e9 74 ff ff ff       	jmpq   22cd <validate+0x48>

0000000000002359 <fail>:
    2359:	f3 0f 1e fa          	endbr64 
    235d:	48 83 ec 08          	sub    $0x8,%rsp
    2361:	83 3d 64 50 00 00 00 	cmpl   $0x0,0x5064(%rip)        # 73cc <is_checker>
    2368:	75 11                	jne    237b <fail+0x22>
    236a:	89 fe                	mov    %edi,%esi
    236c:	bf 00 00 00 00       	mov    $0x0,%edi
    2371:	e8 16 fe ff ff       	callq  218c <notify_server>
    2376:	48 83 c4 08          	add    $0x8,%rsp
    237a:	c3                   	retq   
    237b:	b8 00 00 00 00       	mov    $0x0,%eax
    2380:	e8 73 fd ff ff       	callq  20f8 <check_fail>

0000000000002385 <bushandler>:
    2385:	f3 0f 1e fa          	endbr64 
    2389:	50                   	push   %rax
    238a:	58                   	pop    %rax
    238b:	48 83 ec 08          	sub    $0x8,%rsp
    238f:	83 3d 36 50 00 00 00 	cmpl   $0x0,0x5036(%rip)        # 73cc <is_checker>
    2396:	74 16                	je     23ae <bushandler+0x29>
    2398:	48 8d 3d 53 20 00 00 	lea    0x2053(%rip),%rdi        # 43f2 <_IO_stdin_used+0x3f2>
    239f:	e8 fc ee ff ff       	callq  12a0 <puts@plt>
    23a4:	b8 00 00 00 00       	mov    $0x0,%eax
    23a9:	e8 4a fd ff ff       	callq  20f8 <check_fail>
    23ae:	48 8d 3d 43 21 00 00 	lea    0x2143(%rip),%rdi        # 44f8 <_IO_stdin_used+0x4f8>
    23b5:	e8 e6 ee ff ff       	callq  12a0 <puts@plt>
    23ba:	48 8d 3d 3b 20 00 00 	lea    0x203b(%rip),%rdi        # 43fc <_IO_stdin_used+0x3fc>
    23c1:	e8 da ee ff ff       	callq  12a0 <puts@plt>
    23c6:	be 00 00 00 00       	mov    $0x0,%esi
    23cb:	bf 00 00 00 00       	mov    $0x0,%edi
    23d0:	e8 b7 fd ff ff       	callq  218c <notify_server>
    23d5:	bf 01 00 00 00       	mov    $0x1,%edi
    23da:	e8 21 f0 ff ff       	callq  1400 <exit@plt>

00000000000023df <seghandler>:
    23df:	f3 0f 1e fa          	endbr64 
    23e3:	50                   	push   %rax
    23e4:	58                   	pop    %rax
    23e5:	48 83 ec 08          	sub    $0x8,%rsp
    23e9:	83 3d dc 4f 00 00 00 	cmpl   $0x0,0x4fdc(%rip)        # 73cc <is_checker>
    23f0:	74 16                	je     2408 <seghandler+0x29>
    23f2:	48 8d 3d 19 20 00 00 	lea    0x2019(%rip),%rdi        # 4412 <_IO_stdin_used+0x412>
    23f9:	e8 a2 ee ff ff       	callq  12a0 <puts@plt>
    23fe:	b8 00 00 00 00       	mov    $0x0,%eax
    2403:	e8 f0 fc ff ff       	callq  20f8 <check_fail>
    2408:	48 8d 3d 09 21 00 00 	lea    0x2109(%rip),%rdi        # 4518 <_IO_stdin_used+0x518>
    240f:	e8 8c ee ff ff       	callq  12a0 <puts@plt>
    2414:	48 8d 3d e1 1f 00 00 	lea    0x1fe1(%rip),%rdi        # 43fc <_IO_stdin_used+0x3fc>
    241b:	e8 80 ee ff ff       	callq  12a0 <puts@plt>
    2420:	be 00 00 00 00       	mov    $0x0,%esi
    2425:	bf 00 00 00 00       	mov    $0x0,%edi
    242a:	e8 5d fd ff ff       	callq  218c <notify_server>
    242f:	bf 01 00 00 00       	mov    $0x1,%edi
    2434:	e8 c7 ef ff ff       	callq  1400 <exit@plt>

0000000000002439 <illegalhandler>:
    2439:	f3 0f 1e fa          	endbr64 
    243d:	50                   	push   %rax
    243e:	58                   	pop    %rax
    243f:	48 83 ec 08          	sub    $0x8,%rsp
    2443:	83 3d 82 4f 00 00 00 	cmpl   $0x0,0x4f82(%rip)        # 73cc <is_checker>
    244a:	74 16                	je     2462 <illegalhandler+0x29>
    244c:	48 8d 3d d2 1f 00 00 	lea    0x1fd2(%rip),%rdi        # 4425 <_IO_stdin_used+0x425>
    2453:	e8 48 ee ff ff       	callq  12a0 <puts@plt>
    2458:	b8 00 00 00 00       	mov    $0x0,%eax
    245d:	e8 96 fc ff ff       	callq  20f8 <check_fail>
    2462:	48 8d 3d d7 20 00 00 	lea    0x20d7(%rip),%rdi        # 4540 <_IO_stdin_used+0x540>
    2469:	e8 32 ee ff ff       	callq  12a0 <puts@plt>
    246e:	48 8d 3d 87 1f 00 00 	lea    0x1f87(%rip),%rdi        # 43fc <_IO_stdin_used+0x3fc>
    2475:	e8 26 ee ff ff       	callq  12a0 <puts@plt>
    247a:	be 00 00 00 00       	mov    $0x0,%esi
    247f:	bf 00 00 00 00       	mov    $0x0,%edi
    2484:	e8 03 fd ff ff       	callq  218c <notify_server>
    2489:	bf 01 00 00 00       	mov    $0x1,%edi
    248e:	e8 6d ef ff ff       	callq  1400 <exit@plt>

0000000000002493 <sigalrmhandler>:
    2493:	f3 0f 1e fa          	endbr64 
    2497:	50                   	push   %rax
    2498:	58                   	pop    %rax
    2499:	48 83 ec 08          	sub    $0x8,%rsp
    249d:	83 3d 28 4f 00 00 00 	cmpl   $0x0,0x4f28(%rip)        # 73cc <is_checker>
    24a4:	74 16                	je     24bc <sigalrmhandler+0x29>
    24a6:	48 8d 3d 8c 1f 00 00 	lea    0x1f8c(%rip),%rdi        # 4439 <_IO_stdin_used+0x439>
    24ad:	e8 ee ed ff ff       	callq  12a0 <puts@plt>
    24b2:	b8 00 00 00 00       	mov    $0x0,%eax
    24b7:	e8 3c fc ff ff       	callq  20f8 <check_fail>
    24bc:	ba 05 00 00 00       	mov    $0x5,%edx
    24c1:	48 8d 35 a8 20 00 00 	lea    0x20a8(%rip),%rsi        # 4570 <_IO_stdin_used+0x570>
    24c8:	bf 01 00 00 00       	mov    $0x1,%edi
    24cd:	b8 00 00 00 00       	mov    $0x0,%eax
    24d2:	e8 d9 ee ff ff       	callq  13b0 <__printf_chk@plt>
    24d7:	be 00 00 00 00       	mov    $0x0,%esi
    24dc:	bf 00 00 00 00       	mov    $0x0,%edi
    24e1:	e8 a6 fc ff ff       	callq  218c <notify_server>
    24e6:	bf 01 00 00 00       	mov    $0x1,%edi
    24eb:	e8 10 ef ff ff       	callq  1400 <exit@plt>

00000000000024f0 <launch>:
    24f0:	f3 0f 1e fa          	endbr64 
    24f4:	55                   	push   %rbp
    24f5:	48 89 e5             	mov    %rsp,%rbp
    24f8:	48 83 ec 10          	sub    $0x10,%rsp
    24fc:	48 89 fa             	mov    %rdi,%rdx
    24ff:	64 48 8b 04 25 28 00 	mov    %fs:0x28,%rax
    2506:	00 00 
    2508:	48 89 45 f8          	mov    %rax,-0x8(%rbp)
    250c:	31 c0                	xor    %eax,%eax
    250e:	48 8d 47 17          	lea    0x17(%rdi),%rax
    2512:	48 89 c1             	mov    %rax,%rcx
    2515:	48 83 e1 f0          	and    $0xfffffffffffffff0,%rcx
    2519:	48 25 00 f0 ff ff    	and    $0xfffffffffffff000,%rax
    251f:	48 89 e6             	mov    %rsp,%rsi
    2522:	48 29 c6             	sub    %rax,%rsi
    2525:	48 89 f0             	mov    %rsi,%rax
    2528:	48 39 c4             	cmp    %rax,%rsp
    252b:	74 12                	je     253f <launch+0x4f>
    252d:	48 81 ec 00 10 00 00 	sub    $0x1000,%rsp
    2534:	48 83 8c 24 f8 0f 00 	orq    $0x0,0xff8(%rsp)
    253b:	00 00 
    253d:	eb e9                	jmp    2528 <launch+0x38>
    253f:	48 89 c8             	mov    %rcx,%rax
    2542:	25 ff 0f 00 00       	and    $0xfff,%eax
    2547:	48 29 c4             	sub    %rax,%rsp
    254a:	48 85 c0             	test   %rax,%rax
    254d:	74 06                	je     2555 <launch+0x65>
    254f:	48 83 4c 04 f8 00    	orq    $0x0,-0x8(%rsp,%rax,1)
    2555:	48 8d 7c 24 0f       	lea    0xf(%rsp),%rdi
    255a:	48 83 e7 f0          	and    $0xfffffffffffffff0,%rdi
    255e:	be f4 00 00 00       	mov    $0xf4,%esi
    2563:	e8 78 ed ff ff       	callq  12e0 <memset@plt>
    2568:	48 8b 05 d1 4a 00 00 	mov    0x4ad1(%rip),%rax        # 7040 <stdin@@GLIBC_2.2.5>
    256f:	48 39 05 3a 4e 00 00 	cmp    %rax,0x4e3a(%rip)        # 73b0 <infile>
    2576:	74 3a                	je     25b2 <launch+0xc2>
    2578:	c7 05 3e 4e 00 00 00 	movl   $0x0,0x4e3e(%rip)        # 73c0 <vlevel>
    257f:	00 00 00 
    2582:	b8 00 00 00 00       	mov    $0x0,%eax
    2587:	e8 ce fa ff ff       	callq  205a <test>
    258c:	83 3d 39 4e 00 00 00 	cmpl   $0x0,0x4e39(%rip)        # 73cc <is_checker>
    2593:	75 35                	jne    25ca <launch+0xda>
    2595:	48 8d 3d bd 1e 00 00 	lea    0x1ebd(%rip),%rdi        # 4459 <_IO_stdin_used+0x459>
    259c:	e8 ff ec ff ff       	callq  12a0 <puts@plt>
    25a1:	48 8b 45 f8          	mov    -0x8(%rbp),%rax
    25a5:	64 48 33 04 25 28 00 	xor    %fs:0x28,%rax
    25ac:	00 00 
    25ae:	75 30                	jne    25e0 <launch+0xf0>
    25b0:	c9                   	leaveq 
    25b1:	c3                   	retq   
    25b2:	48 8d 35 88 1e 00 00 	lea    0x1e88(%rip),%rsi        # 4441 <_IO_stdin_used+0x441>
    25b9:	bf 01 00 00 00       	mov    $0x1,%edi
    25be:	b8 00 00 00 00       	mov    $0x0,%eax
    25c3:	e8 e8 ed ff ff       	callq  13b0 <__printf_chk@plt>
    25c8:	eb ae                	jmp    2578 <launch+0x88>
    25ca:	48 8d 3d 7d 1e 00 00 	lea    0x1e7d(%rip),%rdi        # 444e <_IO_stdin_used+0x44e>
    25d1:	e8 ca ec ff ff       	callq  12a0 <puts@plt>
    25d6:	b8 00 00 00 00       	mov    $0x0,%eax
    25db:	e8 18 fb ff ff       	callq  20f8 <check_fail>
    25e0:	e8 db ec ff ff       	callq  12c0 <__stack_chk_fail@plt>

00000000000025e5 <stable_launch>:
    25e5:	f3 0f 1e fa          	endbr64 
    25e9:	53                   	push   %rbx
    25ea:	48 89 3d b7 4d 00 00 	mov    %rdi,0x4db7(%rip)        # 73a8 <global_offset>
    25f1:	41 b9 00 00 00 00    	mov    $0x0,%r9d
    25f7:	41 b8 00 00 00 00    	mov    $0x0,%r8d
    25fd:	b9 32 01 00 00       	mov    $0x132,%ecx
    2602:	ba 07 00 00 00       	mov    $0x7,%edx
    2607:	be 00 00 10 00       	mov    $0x100000,%esi
    260c:	bf 00 60 58 55       	mov    $0x55586000,%edi
    2611:	e8 ba ec ff ff       	callq  12d0 <mmap@plt>
    2616:	48 89 c3             	mov    %rax,%rbx
    2619:	48 3d 00 60 58 55    	cmp    $0x55586000,%rax
    261f:	75 43                	jne    2664 <stable_launch+0x7f>
    2621:	48 8d 90 f8 ff 0f 00 	lea    0xffff8(%rax),%rdx
    2628:	48 89 15 c1 59 00 00 	mov    %rdx,0x59c1(%rip)        # 7ff0 <stack_top>
    262f:	48 89 e0             	mov    %rsp,%rax
    2632:	48 89 d4             	mov    %rdx,%rsp
    2635:	48 89 c2             	mov    %rax,%rdx
    2638:	48 89 15 61 4d 00 00 	mov    %rdx,0x4d61(%rip)        # 73a0 <global_save_stack>
    263f:	48 8b 3d 62 4d 00 00 	mov    0x4d62(%rip),%rdi        # 73a8 <global_offset>
    2646:	e8 a5 fe ff ff       	callq  24f0 <launch>
    264b:	48 8b 05 4e 4d 00 00 	mov    0x4d4e(%rip),%rax        # 73a0 <global_save_stack>
    2652:	48 89 c4             	mov    %rax,%rsp
    2655:	be 00 00 10 00       	mov    $0x100000,%esi
    265a:	48 89 df             	mov    %rbx,%rdi
    265d:	e8 3e ed ff ff       	callq  13a0 <munmap@plt>
    2662:	5b                   	pop    %rbx
    2663:	c3                   	retq   
    2664:	be 00 00 10 00       	mov    $0x100000,%esi
    2669:	48 89 c7             	mov    %rax,%rdi
    266c:	e8 2f ed ff ff       	callq  13a0 <munmap@plt>
    2671:	b9 00 60 58 55       	mov    $0x55586000,%ecx
    2676:	48 8d 15 2b 1f 00 00 	lea    0x1f2b(%rip),%rdx        # 45a8 <_IO_stdin_used+0x5a8>
    267d:	be 01 00 00 00       	mov    $0x1,%esi
    2682:	48 8b 3d d7 49 00 00 	mov    0x49d7(%rip),%rdi        # 7060 <stderr@@GLIBC_2.2.5>
    2689:	b8 00 00 00 00       	mov    $0x0,%eax
    268e:	e8 8d ed ff ff       	callq  1420 <__fprintf_chk@plt>
    2693:	bf 01 00 00 00       	mov    $0x1,%edi
    2698:	e8 63 ed ff ff       	callq  1400 <exit@plt>

000000000000269d <rio_readinitb>:
    269d:	89 37                	mov    %esi,(%rdi)
    269f:	c7 47 04 00 00 00 00 	movl   $0x0,0x4(%rdi)
    26a6:	48 8d 47 10          	lea    0x10(%rdi),%rax
    26aa:	48 89 47 08          	mov    %rax,0x8(%rdi)
    26ae:	c3                   	retq   

00000000000026af <sigalrm_handler>:
    26af:	f3 0f 1e fa          	endbr64 
    26b3:	50                   	push   %rax
    26b4:	58                   	pop    %rax
    26b5:	48 83 ec 08          	sub    $0x8,%rsp
    26b9:	b9 00 00 00 00       	mov    $0x0,%ecx
    26be:	48 8d 15 1b 1f 00 00 	lea    0x1f1b(%rip),%rdx        # 45e0 <trans_char+0x10>
    26c5:	be 01 00 00 00       	mov    $0x1,%esi
    26ca:	48 8b 3d 8f 49 00 00 	mov    0x498f(%rip),%rdi        # 7060 <stderr@@GLIBC_2.2.5>
    26d1:	b8 00 00 00 00       	mov    $0x0,%eax
    26d6:	e8 45 ed ff ff       	callq  1420 <__fprintf_chk@plt>
    26db:	bf 01 00 00 00       	mov    $0x1,%edi
    26e0:	e8 1b ed ff ff       	callq  1400 <exit@plt>

00000000000026e5 <rio_writen>:
    26e5:	41 55                	push   %r13
    26e7:	41 54                	push   %r12
    26e9:	55                   	push   %rbp
    26ea:	53                   	push   %rbx
    26eb:	48 83 ec 08          	sub    $0x8,%rsp
    26ef:	41 89 fc             	mov    %edi,%r12d
    26f2:	48 89 f5             	mov    %rsi,%rbp
    26f5:	49 89 d5             	mov    %rdx,%r13
    26f8:	48 89 d3             	mov    %rdx,%rbx
    26fb:	eb 06                	jmp    2703 <rio_writen+0x1e>
    26fd:	48 29 c3             	sub    %rax,%rbx
    2700:	48 01 c5             	add    %rax,%rbp
    2703:	48 85 db             	test   %rbx,%rbx
    2706:	74 24                	je     272c <rio_writen+0x47>
    2708:	48 89 da             	mov    %rbx,%rdx
    270b:	48 89 ee             	mov    %rbp,%rsi
    270e:	44 89 e7             	mov    %r12d,%edi
    2711:	e8 9a eb ff ff       	callq  12b0 <write@plt>
    2716:	48 85 c0             	test   %rax,%rax
    2719:	7f e2                	jg     26fd <rio_writen+0x18>
    271b:	e8 40 eb ff ff       	callq  1260 <__errno_location@plt>
    2720:	83 38 04             	cmpl   $0x4,(%rax)
    2723:	75 15                	jne    273a <rio_writen+0x55>
    2725:	b8 00 00 00 00       	mov    $0x0,%eax
    272a:	eb d1                	jmp    26fd <rio_writen+0x18>
    272c:	4c 89 e8             	mov    %r13,%rax
    272f:	48 83 c4 08          	add    $0x8,%rsp
    2733:	5b                   	pop    %rbx
    2734:	5d                   	pop    %rbp
    2735:	41 5c                	pop    %r12
    2737:	41 5d                	pop    %r13
    2739:	c3                   	retq   
    273a:	48 c7 c0 ff ff ff ff 	mov    $0xffffffffffffffff,%rax
    2741:	eb ec                	jmp    272f <rio_writen+0x4a>

0000000000002743 <rio_read>:
    2743:	41 55                	push   %r13
    2745:	41 54                	push   %r12
    2747:	55                   	push   %rbp
    2748:	53                   	push   %rbx
    2749:	48 83 ec 08          	sub    $0x8,%rsp
    274d:	48 89 fb             	mov    %rdi,%rbx
    2750:	49 89 f5             	mov    %rsi,%r13
    2753:	49 89 d4             	mov    %rdx,%r12
    2756:	eb 17                	jmp    276f <rio_read+0x2c>
    2758:	e8 03 eb ff ff       	callq  1260 <__errno_location@plt>
    275d:	83 38 04             	cmpl   $0x4,(%rax)
    2760:	74 0d                	je     276f <rio_read+0x2c>
    2762:	48 c7 c0 ff ff ff ff 	mov    $0xffffffffffffffff,%rax
    2769:	eb 54                	jmp    27bf <rio_read+0x7c>
    276b:	48 89 6b 08          	mov    %rbp,0x8(%rbx)
    276f:	8b 6b 04             	mov    0x4(%rbx),%ebp
    2772:	85 ed                	test   %ebp,%ebp
    2774:	7f 23                	jg     2799 <rio_read+0x56>
    2776:	48 8d 6b 10          	lea    0x10(%rbx),%rbp
    277a:	8b 3b                	mov    (%rbx),%edi
    277c:	ba 00 20 00 00       	mov    $0x2000,%edx
    2781:	48 89 ee             	mov    %rbp,%rsi
    2784:	e8 87 eb ff ff       	callq  1310 <read@plt>
    2789:	89 43 04             	mov    %eax,0x4(%rbx)
    278c:	85 c0                	test   %eax,%eax
    278e:	78 c8                	js     2758 <rio_read+0x15>
    2790:	75 d9                	jne    276b <rio_read+0x28>
    2792:	b8 00 00 00 00       	mov    $0x0,%eax
    2797:	eb 26                	jmp    27bf <rio_read+0x7c>
    2799:	89 e8                	mov    %ebp,%eax
    279b:	4c 39 e0             	cmp    %r12,%rax
    279e:	72 03                	jb     27a3 <rio_read+0x60>
    27a0:	44 89 e5             	mov    %r12d,%ebp
    27a3:	4c 63 e5             	movslq %ebp,%r12
    27a6:	48 8b 73 08          	mov    0x8(%rbx),%rsi
    27aa:	4c 89 e2             	mov    %r12,%rdx
    27ad:	4c 89 ef             	mov    %r13,%rdi
    27b0:	e8 ab eb ff ff       	callq  1360 <memcpy@plt>
    27b5:	4c 01 63 08          	add    %r12,0x8(%rbx)
    27b9:	29 6b 04             	sub    %ebp,0x4(%rbx)
    27bc:	4c 89 e0             	mov    %r12,%rax
    27bf:	48 83 c4 08          	add    $0x8,%rsp
    27c3:	5b                   	pop    %rbx
    27c4:	5d                   	pop    %rbp
    27c5:	41 5c                	pop    %r12
    27c7:	41 5d                	pop    %r13
    27c9:	c3                   	retq   

00000000000027ca <rio_readlineb>:
    27ca:	41 55                	push   %r13
    27cc:	41 54                	push   %r12
    27ce:	55                   	push   %rbp
    27cf:	53                   	push   %rbx
    27d0:	48 83 ec 18          	sub    $0x18,%rsp
    27d4:	49 89 fd             	mov    %rdi,%r13
    27d7:	48 89 f5             	mov    %rsi,%rbp
    27da:	49 89 d4             	mov    %rdx,%r12
    27dd:	64 48 8b 04 25 28 00 	mov    %fs:0x28,%rax
    27e4:	00 00 
    27e6:	48 89 44 24 08       	mov    %rax,0x8(%rsp)
    27eb:	31 c0                	xor    %eax,%eax
    27ed:	bb 01 00 00 00       	mov    $0x1,%ebx
    27f2:	eb 18                	jmp    280c <rio_readlineb+0x42>
    27f4:	85 c0                	test   %eax,%eax
    27f6:	75 65                	jne    285d <rio_readlineb+0x93>
    27f8:	48 83 fb 01          	cmp    $0x1,%rbx
    27fc:	75 3d                	jne    283b <rio_readlineb+0x71>
    27fe:	b8 00 00 00 00       	mov    $0x0,%eax
    2803:	eb 3d                	jmp    2842 <rio_readlineb+0x78>
    2805:	48 83 c3 01          	add    $0x1,%rbx
    2809:	48 89 d5             	mov    %rdx,%rbp
    280c:	4c 39 e3             	cmp    %r12,%rbx
    280f:	73 2a                	jae    283b <rio_readlineb+0x71>
    2811:	48 8d 74 24 07       	lea    0x7(%rsp),%rsi
    2816:	ba 01 00 00 00       	mov    $0x1,%edx
    281b:	4c 89 ef             	mov    %r13,%rdi
    281e:	e8 20 ff ff ff       	callq  2743 <rio_read>
    2823:	83 f8 01             	cmp    $0x1,%eax
    2826:	75 cc                	jne    27f4 <rio_readlineb+0x2a>
    2828:	48 8d 55 01          	lea    0x1(%rbp),%rdx
    282c:	0f b6 44 24 07       	movzbl 0x7(%rsp),%eax
    2831:	88 45 00             	mov    %al,0x0(%rbp)
    2834:	3c 0a                	cmp    $0xa,%al
    2836:	75 cd                	jne    2805 <rio_readlineb+0x3b>
    2838:	48 89 d5             	mov    %rdx,%rbp
    283b:	c6 45 00 00          	movb   $0x0,0x0(%rbp)
    283f:	48 89 d8             	mov    %rbx,%rax
    2842:	48 8b 4c 24 08       	mov    0x8(%rsp),%rcx
    2847:	64 48 33 0c 25 28 00 	xor    %fs:0x28,%rcx
    284e:	00 00 
    2850:	75 14                	jne    2866 <rio_readlineb+0x9c>
    2852:	48 83 c4 18          	add    $0x18,%rsp
    2856:	5b                   	pop    %rbx
    2857:	5d                   	pop    %rbp
    2858:	41 5c                	pop    %r12
    285a:	41 5d                	pop    %r13
    285c:	c3                   	retq   
    285d:	48 c7 c0 ff ff ff ff 	mov    $0xffffffffffffffff,%rax
    2864:	eb dc                	jmp    2842 <rio_readlineb+0x78>
    2866:	e8 55 ea ff ff       	callq  12c0 <__stack_chk_fail@plt>

000000000000286b <urlencode>:
    286b:	41 54                	push   %r12
    286d:	55                   	push   %rbp
    286e:	53                   	push   %rbx
    286f:	48 83 ec 10          	sub    $0x10,%rsp
    2873:	48 89 fb             	mov    %rdi,%rbx
    2876:	48 89 f5             	mov    %rsi,%rbp
    2879:	64 48 8b 04 25 28 00 	mov    %fs:0x28,%rax
    2880:	00 00 
    2882:	48 89 44 24 08       	mov    %rax,0x8(%rsp)
    2887:	31 c0                	xor    %eax,%eax
    2889:	48 c7 c1 ff ff ff ff 	mov    $0xffffffffffffffff,%rcx
    2890:	f2 ae                	repnz scas %es:(%rdi),%al
    2892:	48 f7 d1             	not    %rcx
    2895:	8d 41 ff             	lea    -0x1(%rcx),%eax
    2898:	eb 0f                	jmp    28a9 <urlencode+0x3e>
    289a:	44 88 45 00          	mov    %r8b,0x0(%rbp)
    289e:	48 8d 6d 01          	lea    0x1(%rbp),%rbp
    28a2:	48 83 c3 01          	add    $0x1,%rbx
    28a6:	44 89 e0             	mov    %r12d,%eax
    28a9:	44 8d 60 ff          	lea    -0x1(%rax),%r12d
    28ad:	85 c0                	test   %eax,%eax
    28af:	0f 84 a8 00 00 00    	je     295d <urlencode+0xf2>
    28b5:	44 0f b6 03          	movzbl (%rbx),%r8d
    28b9:	41 80 f8 2a          	cmp    $0x2a,%r8b
    28bd:	0f 94 c2             	sete   %dl
    28c0:	41 80 f8 2d          	cmp    $0x2d,%r8b
    28c4:	0f 94 c0             	sete   %al
    28c7:	08 c2                	or     %al,%dl
    28c9:	75 cf                	jne    289a <urlencode+0x2f>
    28cb:	41 80 f8 2e          	cmp    $0x2e,%r8b
    28cf:	74 c9                	je     289a <urlencode+0x2f>
    28d1:	41 80 f8 5f          	cmp    $0x5f,%r8b
    28d5:	74 c3                	je     289a <urlencode+0x2f>
    28d7:	41 8d 40 d0          	lea    -0x30(%r8),%eax
    28db:	3c 09                	cmp    $0x9,%al
    28dd:	76 bb                	jbe    289a <urlencode+0x2f>
    28df:	41 8d 40 bf          	lea    -0x41(%r8),%eax
    28e3:	3c 19                	cmp    $0x19,%al
    28e5:	76 b3                	jbe    289a <urlencode+0x2f>
    28e7:	41 8d 40 9f          	lea    -0x61(%r8),%eax
    28eb:	3c 19                	cmp    $0x19,%al
    28ed:	76 ab                	jbe    289a <urlencode+0x2f>
    28ef:	41 80 f8 20          	cmp    $0x20,%r8b
    28f3:	74 56                	je     294b <urlencode+0xe0>
    28f5:	41 8d 40 e0          	lea    -0x20(%r8),%eax
    28f9:	3c 5f                	cmp    $0x5f,%al
    28fb:	0f 96 c2             	setbe  %dl
    28fe:	41 80 f8 09          	cmp    $0x9,%r8b
    2902:	0f 94 c0             	sete   %al
    2905:	08 c2                	or     %al,%dl
    2907:	74 4f                	je     2958 <urlencode+0xed>
    2909:	48 89 e7             	mov    %rsp,%rdi
    290c:	45 0f b6 c0          	movzbl %r8b,%r8d
    2910:	48 8d 0d 5e 1d 00 00 	lea    0x1d5e(%rip),%rcx        # 4675 <trans_char+0xa5>
    2917:	ba 08 00 00 00       	mov    $0x8,%edx
    291c:	be 01 00 00 00       	mov    $0x1,%esi
    2921:	b8 00 00 00 00       	mov    $0x0,%eax
    2926:	e8 15 eb ff ff       	callq  1440 <__sprintf_chk@plt>
    292b:	0f b6 04 24          	movzbl (%rsp),%eax
    292f:	88 45 00             	mov    %al,0x0(%rbp)
    2932:	0f b6 44 24 01       	movzbl 0x1(%rsp),%eax
    2937:	88 45 01             	mov    %al,0x1(%rbp)
    293a:	0f b6 44 24 02       	movzbl 0x2(%rsp),%eax
    293f:	88 45 02             	mov    %al,0x2(%rbp)
    2942:	48 8d 6d 03          	lea    0x3(%rbp),%rbp
    2946:	e9 57 ff ff ff       	jmpq   28a2 <urlencode+0x37>
    294b:	c6 45 00 2b          	movb   $0x2b,0x0(%rbp)
    294f:	48 8d 6d 01          	lea    0x1(%rbp),%rbp
    2953:	e9 4a ff ff ff       	jmpq   28a2 <urlencode+0x37>
    2958:	b8 ff ff ff ff       	mov    $0xffffffff,%eax
    295d:	48 8b 74 24 08       	mov    0x8(%rsp),%rsi
    2962:	64 48 33 34 25 28 00 	xor    %fs:0x28,%rsi
    2969:	00 00 
    296b:	75 09                	jne    2976 <urlencode+0x10b>
    296d:	48 83 c4 10          	add    $0x10,%rsp
    2971:	5b                   	pop    %rbx
    2972:	5d                   	pop    %rbp
    2973:	41 5c                	pop    %r12
    2975:	c3                   	retq   
    2976:	e8 45 e9 ff ff       	callq  12c0 <__stack_chk_fail@plt>

000000000000297b <submitr>:
    297b:	f3 0f 1e fa          	endbr64 
    297f:	41 57                	push   %r15
    2981:	41 56                	push   %r14
    2983:	41 55                	push   %r13
    2985:	41 54                	push   %r12
    2987:	55                   	push   %rbp
    2988:	53                   	push   %rbx
    2989:	4c 8d 9c 24 00 60 ff 	lea    -0xa000(%rsp),%r11
    2990:	ff 
    2991:	48 81 ec 00 10 00 00 	sub    $0x1000,%rsp
    2998:	48 83 0c 24 00       	orq    $0x0,(%rsp)
    299d:	4c 39 dc             	cmp    %r11,%rsp
    29a0:	75 ef                	jne    2991 <submitr+0x16>
    29a2:	48 83 ec 68          	sub    $0x68,%rsp
    29a6:	49 89 fc             	mov    %rdi,%r12
    29a9:	89 74 24 14          	mov    %esi,0x14(%rsp)
    29ad:	49 89 d6             	mov    %rdx,%r14
    29b0:	48 89 4c 24 08       	mov    %rcx,0x8(%rsp)
    29b5:	4c 89 44 24 18       	mov    %r8,0x18(%rsp)
    29ba:	4d 89 cd             	mov    %r9,%r13
    29bd:	48 8b ac 24 a0 a0 00 	mov    0xa0a0(%rsp),%rbp
    29c4:	00 
    29c5:	64 48 8b 04 25 28 00 	mov    %fs:0x28,%rax
    29cc:	00 00 
    29ce:	48 89 84 24 58 a0 00 	mov    %rax,0xa058(%rsp)
    29d5:	00 
    29d6:	31 c0                	xor    %eax,%eax
    29d8:	c7 44 24 2c 00 00 00 	movl   $0x0,0x2c(%rsp)
    29df:	00 
    29e0:	ba 00 00 00 00       	mov    $0x0,%edx
    29e5:	be 01 00 00 00       	mov    $0x1,%esi
    29ea:	bf 02 00 00 00       	mov    $0x2,%edi
    29ef:	e8 5c ea ff ff       	callq  1450 <socket@plt>
    29f4:	85 c0                	test   %eax,%eax
    29f6:	0f 88 a0 02 00 00    	js     2c9c <submitr+0x321>
    29fc:	89 c3                	mov    %eax,%ebx
    29fe:	4c 89 e7             	mov    %r12,%rdi
    2a01:	e8 2a e9 ff ff       	callq  1330 <gethostbyname@plt>
    2a06:	48 85 c0             	test   %rax,%rax
    2a09:	0f 84 d9 02 00 00    	je     2ce8 <submitr+0x36d>
    2a0f:	4c 8d 7c 24 30       	lea    0x30(%rsp),%r15
    2a14:	48 c7 44 24 30 00 00 	movq   $0x0,0x30(%rsp)
    2a1b:	00 00 
    2a1d:	48 c7 44 24 38 00 00 	movq   $0x0,0x38(%rsp)
    2a24:	00 00 
    2a26:	66 c7 44 24 30 02 00 	movw   $0x2,0x30(%rsp)
    2a2d:	48 63 50 14          	movslq 0x14(%rax),%rdx
    2a31:	48 8b 40 18          	mov    0x18(%rax),%rax
    2a35:	48 8b 30             	mov    (%rax),%rsi
    2a38:	48 8d 7c 24 34       	lea    0x34(%rsp),%rdi
    2a3d:	b9 0c 00 00 00       	mov    $0xc,%ecx
    2a42:	e8 f9 e8 ff ff       	callq  1340 <__memmove_chk@plt>
    2a47:	0f b7 74 24 14       	movzwl 0x14(%rsp),%esi
    2a4c:	66 c1 c6 08          	rol    $0x8,%si
    2a50:	66 89 74 24 32       	mov    %si,0x32(%rsp)
    2a55:	ba 10 00 00 00       	mov    $0x10,%edx
    2a5a:	4c 89 fe             	mov    %r15,%rsi
    2a5d:	89 df                	mov    %ebx,%edi
    2a5f:	e8 ac e9 ff ff       	callq  1410 <connect@plt>
    2a64:	85 c0                	test   %eax,%eax
    2a66:	0f 88 e4 02 00 00    	js     2d50 <submitr+0x3d5>
    2a6c:	49 c7 c0 ff ff ff ff 	mov    $0xffffffffffffffff,%r8
    2a73:	b8 00 00 00 00       	mov    $0x0,%eax
    2a78:	4c 89 c1             	mov    %r8,%rcx
    2a7b:	4c 89 ef             	mov    %r13,%rdi
    2a7e:	f2 ae                	repnz scas %es:(%rdi),%al
    2a80:	48 89 ca             	mov    %rcx,%rdx
    2a83:	48 f7 d2             	not    %rdx
    2a86:	4c 89 c1             	mov    %r8,%rcx
    2a89:	4c 89 f7             	mov    %r14,%rdi
    2a8c:	f2 ae                	repnz scas %es:(%rdi),%al
    2a8e:	48 f7 d1             	not    %rcx
    2a91:	48 89 ce             	mov    %rcx,%rsi
    2a94:	4c 89 c1             	mov    %r8,%rcx
    2a97:	48 8b 7c 24 08       	mov    0x8(%rsp),%rdi
    2a9c:	f2 ae                	repnz scas %es:(%rdi),%al
    2a9e:	48 f7 d1             	not    %rcx
    2aa1:	48 8d 74 0e fe       	lea    -0x2(%rsi,%rcx,1),%rsi
    2aa6:	4c 89 c1             	mov    %r8,%rcx
    2aa9:	48 8b 7c 24 18       	mov    0x18(%rsp),%rdi
    2aae:	f2 ae                	repnz scas %es:(%rdi),%al
    2ab0:	48 89 c8             	mov    %rcx,%rax
    2ab3:	48 f7 d0             	not    %rax
    2ab6:	48 8d 4c 06 ff       	lea    -0x1(%rsi,%rax,1),%rcx
    2abb:	48 8d 44 52 fd       	lea    -0x3(%rdx,%rdx,2),%rax
    2ac0:	48 8d 84 01 80 00 00 	lea    0x80(%rcx,%rax,1),%rax
    2ac7:	00 
    2ac8:	48 3d 00 20 00 00    	cmp    $0x2000,%rax
    2ace:	0f 87 d6 02 00 00    	ja     2daa <submitr+0x42f>
    2ad4:	48 8d b4 24 50 40 00 	lea    0x4050(%rsp),%rsi
    2adb:	00 
    2adc:	b9 00 04 00 00       	mov    $0x400,%ecx
    2ae1:	b8 00 00 00 00       	mov    $0x0,%eax
    2ae6:	48 89 f7             	mov    %rsi,%rdi
    2ae9:	f3 48 ab             	rep stos %rax,%es:(%rdi)
    2aec:	4c 89 ef             	mov    %r13,%rdi
    2aef:	e8 77 fd ff ff       	callq  286b <urlencode>
    2af4:	85 c0                	test   %eax,%eax
    2af6:	0f 88 21 03 00 00    	js     2e1d <submitr+0x4a2>
    2afc:	4c 8d bc 24 50 20 00 	lea    0x2050(%rsp),%r15
    2b03:	00 
    2b04:	41 54                	push   %r12
    2b06:	48 8d 84 24 58 40 00 	lea    0x4058(%rsp),%rax
    2b0d:	00 
    2b0e:	50                   	push   %rax
    2b0f:	4d 89 f1             	mov    %r14,%r9
    2b12:	4c 8b 44 24 18       	mov    0x18(%rsp),%r8
    2b17:	48 8d 0d ea 1a 00 00 	lea    0x1aea(%rip),%rcx        # 4608 <trans_char+0x38>
    2b1e:	ba 00 20 00 00       	mov    $0x2000,%edx
    2b23:	be 01 00 00 00       	mov    $0x1,%esi
    2b28:	4c 89 ff             	mov    %r15,%rdi
    2b2b:	b8 00 00 00 00       	mov    $0x0,%eax
    2b30:	e8 0b e9 ff ff       	callq  1440 <__sprintf_chk@plt>
    2b35:	48 c7 c1 ff ff ff ff 	mov    $0xffffffffffffffff,%rcx
    2b3c:	b8 00 00 00 00       	mov    $0x0,%eax
    2b41:	4c 89 ff             	mov    %r15,%rdi
    2b44:	f2 ae                	repnz scas %es:(%rdi),%al
    2b46:	48 f7 d1             	not    %rcx
    2b49:	48 8d 51 ff          	lea    -0x1(%rcx),%rdx
    2b4d:	4c 89 fe             	mov    %r15,%rsi
    2b50:	89 df                	mov    %ebx,%edi
    2b52:	e8 8e fb ff ff       	callq  26e5 <rio_writen>
    2b57:	48 83 c4 10          	add    $0x10,%rsp
    2b5b:	48 85 c0             	test   %rax,%rax
    2b5e:	0f 88 44 03 00 00    	js     2ea8 <submitr+0x52d>
    2b64:	4c 8d 64 24 40       	lea    0x40(%rsp),%r12
    2b69:	89 de                	mov    %ebx,%esi
    2b6b:	4c 89 e7             	mov    %r12,%rdi
    2b6e:	e8 2a fb ff ff       	callq  269d <rio_readinitb>
    2b73:	48 8d b4 24 50 20 00 	lea    0x2050(%rsp),%rsi
    2b7a:	00 
    2b7b:	ba 00 20 00 00       	mov    $0x2000,%edx
    2b80:	4c 89 e7             	mov    %r12,%rdi
    2b83:	e8 42 fc ff ff       	callq  27ca <rio_readlineb>
    2b88:	48 85 c0             	test   %rax,%rax
    2b8b:	0f 8e 86 03 00 00    	jle    2f17 <submitr+0x59c>
    2b91:	48 8d 4c 24 2c       	lea    0x2c(%rsp),%rcx
    2b96:	48 8d 94 24 50 60 00 	lea    0x6050(%rsp),%rdx
    2b9d:	00 
    2b9e:	48 8d bc 24 50 20 00 	lea    0x2050(%rsp),%rdi
    2ba5:	00 
    2ba6:	4c 8d 84 24 50 80 00 	lea    0x8050(%rsp),%r8
    2bad:	00 
    2bae:	48 8d 35 c7 1a 00 00 	lea    0x1ac7(%rip),%rsi        # 467c <trans_char+0xac>
    2bb5:	b8 00 00 00 00       	mov    $0x0,%eax
    2bba:	e8 d1 e7 ff ff       	callq  1390 <__isoc99_sscanf@plt>
    2bbf:	48 8d b4 24 50 20 00 	lea    0x2050(%rsp),%rsi
    2bc6:	00 
    2bc7:	b9 03 00 00 00       	mov    $0x3,%ecx
    2bcc:	48 8d 3d c0 1a 00 00 	lea    0x1ac0(%rip),%rdi        # 4693 <trans_char+0xc3>
    2bd3:	f3 a6                	repz cmpsb %es:(%rdi),%ds:(%rsi)
    2bd5:	0f 97 c0             	seta   %al
    2bd8:	1c 00                	sbb    $0x0,%al
    2bda:	84 c0                	test   %al,%al
    2bdc:	0f 84 b3 03 00 00    	je     2f95 <submitr+0x61a>
    2be2:	48 8d b4 24 50 20 00 	lea    0x2050(%rsp),%rsi
    2be9:	00 
    2bea:	48 8d 7c 24 40       	lea    0x40(%rsp),%rdi
    2bef:	ba 00 20 00 00       	mov    $0x2000,%edx
    2bf4:	e8 d1 fb ff ff       	callq  27ca <rio_readlineb>
    2bf9:	48 85 c0             	test   %rax,%rax
    2bfc:	7f c1                	jg     2bbf <submitr+0x244>
    2bfe:	48 b8 45 72 72 6f 72 	movabs $0x43203a726f727245,%rax
    2c05:	3a 20 43 
    2c08:	48 ba 6c 69 65 6e 74 	movabs $0x6e7520746e65696c,%rdx
    2c0f:	20 75 6e 
    2c12:	48 89 45 00          	mov    %rax,0x0(%rbp)
    2c16:	48 89 55 08          	mov    %rdx,0x8(%rbp)
    2c1a:	48 b8 61 62 6c 65 20 	movabs $0x206f7420656c6261,%rax
    2c21:	74 6f 20 
    2c24:	48 ba 72 65 61 64 20 	movabs $0x6165682064616572,%rdx
    2c2b:	68 65 61 
    2c2e:	48 89 45 10          	mov    %rax,0x10(%rbp)
    2c32:	48 89 55 18          	mov    %rdx,0x18(%rbp)
    2c36:	48 b8 64 65 72 73 20 	movabs $0x6f72662073726564,%rax
    2c3d:	66 72 6f 
    2c40:	48 ba 6d 20 74 68 65 	movabs $0x657220656874206d,%rdx
    2c47:	20 72 65 
    2c4a:	48 89 45 20          	mov    %rax,0x20(%rbp)
    2c4e:	48 89 55 28          	mov    %rdx,0x28(%rbp)
    2c52:	48 b8 73 75 6c 74 20 	movabs $0x72657320746c7573,%rax
    2c59:	73 65 72 
    2c5c:	48 89 45 30          	mov    %rax,0x30(%rbp)
    2c60:	c7 45 38 76 65 72 00 	movl   $0x726576,0x38(%rbp)
    2c67:	89 df                	mov    %ebx,%edi
    2c69:	e8 92 e6 ff ff       	callq  1300 <close@plt>
    2c6e:	b8 ff ff ff ff       	mov    $0xffffffff,%eax
    2c73:	48 8b 9c 24 58 a0 00 	mov    0xa058(%rsp),%rbx
    2c7a:	00 
    2c7b:	64 48 33 1c 25 28 00 	xor    %fs:0x28,%rbx
    2c82:	00 00 
    2c84:	0f 85 7e 04 00 00    	jne    3108 <submitr+0x78d>
    2c8a:	48 81 c4 68 a0 00 00 	add    $0xa068,%rsp
    2c91:	5b                   	pop    %rbx
    2c92:	5d                   	pop    %rbp
    2c93:	41 5c                	pop    %r12
    2c95:	41 5d                	pop    %r13
    2c97:	41 5e                	pop    %r14
    2c99:	41 5f                	pop    %r15
    2c9b:	c3                   	retq   
    2c9c:	48 b8 45 72 72 6f 72 	movabs $0x43203a726f727245,%rax
    2ca3:	3a 20 43 
    2ca6:	48 ba 6c 69 65 6e 74 	movabs $0x6e7520746e65696c,%rdx
    2cad:	20 75 6e 
    2cb0:	48 89 45 00          	mov    %rax,0x0(%rbp)
    2cb4:	48 89 55 08          	mov    %rdx,0x8(%rbp)
    2cb8:	48 b8 61 62 6c 65 20 	movabs $0x206f7420656c6261,%rax
    2cbf:	74 6f 20 
    2cc2:	48 ba 63 72 65 61 74 	movabs $0x7320657461657263,%rdx
    2cc9:	65 20 73 
    2ccc:	48 89 45 10          	mov    %rax,0x10(%rbp)
    2cd0:	48 89 55 18          	mov    %rdx,0x18(%rbp)
    2cd4:	c7 45 20 6f 63 6b 65 	movl   $0x656b636f,0x20(%rbp)
    2cdb:	66 c7 45 24 74 00    	movw   $0x74,0x24(%rbp)
    2ce1:	b8 ff ff ff ff       	mov    $0xffffffff,%eax
    2ce6:	eb 8b                	jmp    2c73 <submitr+0x2f8>
    2ce8:	48 b8 45 72 72 6f 72 	movabs $0x44203a726f727245,%rax
    2cef:	3a 20 44 
    2cf2:	48 ba 4e 53 20 69 73 	movabs $0x6e7520736920534e,%rdx
    2cf9:	20 75 6e 
    2cfc:	48 89 45 00          	mov    %rax,0x0(%rbp)
    2d00:	48 89 55 08          	mov    %rdx,0x8(%rbp)
    2d04:	48 b8 61 62 6c 65 20 	movabs $0x206f7420656c6261,%rax
    2d0b:	74 6f 20 
    2d0e:	48 ba 72 65 73 6f 6c 	movabs $0x2065766c6f736572,%rdx
    2d15:	76 65 20 
    2d18:	48 89 45 10          	mov    %rax,0x10(%rbp)
    2d1c:	48 89 55 18          	mov    %rdx,0x18(%rbp)
    2d20:	48 b8 73 65 72 76 65 	movabs $0x6120726576726573,%rax
    2d27:	72 20 61 
    2d2a:	48 89 45 20          	mov    %rax,0x20(%rbp)
    2d2e:	c7 45 28 64 64 72 65 	movl   $0x65726464,0x28(%rbp)
    2d35:	66 c7 45 2c 73 73    	movw   $0x7373,0x2c(%rbp)
    2d3b:	c6 45 2e 00          	movb   $0x0,0x2e(%rbp)
    2d3f:	89 df                	mov    %ebx,%edi
    2d41:	e8 ba e5 ff ff       	callq  1300 <close@plt>
    2d46:	b8 ff ff ff ff       	mov    $0xffffffff,%eax
    2d4b:	e9 23 ff ff ff       	jmpq   2c73 <submitr+0x2f8>
    2d50:	48 b8 45 72 72 6f 72 	movabs $0x55203a726f727245,%rax
    2d57:	3a 20 55 
    2d5a:	48 ba 6e 61 62 6c 65 	movabs $0x6f7420656c62616e,%rdx
    2d61:	20 74 6f 
    2d64:	48 89 45 00          	mov    %rax,0x0(%rbp)
    2d68:	48 89 55 08          	mov    %rdx,0x8(%rbp)
    2d6c:	48 b8 20 63 6f 6e 6e 	movabs $0x7463656e6e6f6320,%rax
    2d73:	65 63 74 
    2d76:	48 ba 20 74 6f 20 74 	movabs $0x20656874206f7420,%rdx
    2d7d:	68 65 20 
    2d80:	48 89 45 10          	mov    %rax,0x10(%rbp)
    2d84:	48 89 55 18          	mov    %rdx,0x18(%rbp)
    2d88:	c7 45 20 73 65 72 76 	movl   $0x76726573,0x20(%rbp)
    2d8f:	66 c7 45 24 65 72    	movw   $0x7265,0x24(%rbp)
    2d95:	c6 45 26 00          	movb   $0x0,0x26(%rbp)
    2d99:	89 df                	mov    %ebx,%edi
    2d9b:	e8 60 e5 ff ff       	callq  1300 <close@plt>
    2da0:	b8 ff ff ff ff       	mov    $0xffffffff,%eax
    2da5:	e9 c9 fe ff ff       	jmpq   2c73 <submitr+0x2f8>
    2daa:	48 b8 45 72 72 6f 72 	movabs $0x52203a726f727245,%rax
    2db1:	3a 20 52 
    2db4:	48 ba 65 73 75 6c 74 	movabs $0x747320746c757365,%rdx
    2dbb:	20 73 74 
    2dbe:	48 89 45 00          	mov    %rax,0x0(%rbp)
    2dc2:	48 89 55 08          	mov    %rdx,0x8(%rbp)
    2dc6:	48 b8 72 69 6e 67 20 	movabs $0x6f6f7420676e6972,%rax
    2dcd:	74 6f 6f 
    2dd0:	48 ba 20 6c 61 72 67 	movabs $0x202e656772616c20,%rdx
    2dd7:	65 2e 20 
    2dda:	48 89 45 10          	mov    %rax,0x10(%rbp)
    2dde:	48 89 55 18          	mov    %rdx,0x18(%rbp)
    2de2:	48 b8 49 6e 63 72 65 	movabs $0x6573616572636e49,%rax
    2de9:	61 73 65 
    2dec:	48 ba 20 53 55 42 4d 	movabs $0x5254494d42555320,%rdx
    2df3:	49 54 52 
    2df6:	48 89 45 20          	mov    %rax,0x20(%rbp)
    2dfa:	48 89 55 28          	mov    %rdx,0x28(%rbp)
    2dfe:	48 b8 5f 4d 41 58 42 	movabs $0x46554258414d5f,%rax
    2e05:	55 46 00 
    2e08:	48 89 45 30          	mov    %rax,0x30(%rbp)
    2e0c:	89 df                	mov    %ebx,%edi
    2e0e:	e8 ed e4 ff ff       	callq  1300 <close@plt>
    2e13:	b8 ff ff ff ff       	mov    $0xffffffff,%eax
    2e18:	e9 56 fe ff ff       	jmpq   2c73 <submitr+0x2f8>
    2e1d:	48 b8 45 72 72 6f 72 	movabs $0x52203a726f727245,%rax
    2e24:	3a 20 52 
    2e27:	48 ba 65 73 75 6c 74 	movabs $0x747320746c757365,%rdx
    2e2e:	20 73 74 
    2e31:	48 89 45 00          	mov    %rax,0x0(%rbp)
    2e35:	48 89 55 08          	mov    %rdx,0x8(%rbp)
    2e39:	48 b8 72 69 6e 67 20 	movabs $0x6e6f6320676e6972,%rax
    2e40:	63 6f 6e 
    2e43:	48 ba 74 61 69 6e 73 	movabs $0x6e6120736e696174,%rdx
    2e4a:	20 61 6e 
    2e4d:	48 89 45 10          	mov    %rax,0x10(%rbp)
    2e51:	48 89 55 18          	mov    %rdx,0x18(%rbp)
    2e55:	48 b8 20 69 6c 6c 65 	movabs $0x6c6167656c6c6920,%rax
    2e5c:	67 61 6c 
    2e5f:	48 ba 20 6f 72 20 75 	movabs $0x72706e7520726f20,%rdx
    2e66:	6e 70 72 
    2e69:	48 89 45 20          	mov    %rax,0x20(%rbp)
    2e6d:	48 89 55 28          	mov    %rdx,0x28(%rbp)
    2e71:	48 b8 69 6e 74 61 62 	movabs $0x20656c6261746e69,%rax
    2e78:	6c 65 20 
    2e7b:	48 ba 63 68 61 72 61 	movabs $0x6574636172616863,%rdx
    2e82:	63 74 65 
    2e85:	48 89 45 30          	mov    %rax,0x30(%rbp)
    2e89:	48 89 55 38          	mov    %rdx,0x38(%rbp)
    2e8d:	66 c7 45 40 72 2e    	movw   $0x2e72,0x40(%rbp)
    2e93:	c6 45 42 00          	movb   $0x0,0x42(%rbp)
    2e97:	89 df                	mov    %ebx,%edi
    2e99:	e8 62 e4 ff ff       	callq  1300 <close@plt>
    2e9e:	b8 ff ff ff ff       	mov    $0xffffffff,%eax
    2ea3:	e9 cb fd ff ff       	jmpq   2c73 <submitr+0x2f8>
    2ea8:	48 b8 45 72 72 6f 72 	movabs $0x43203a726f727245,%rax
    2eaf:	3a 20 43 
    2eb2:	48 ba 6c 69 65 6e 74 	movabs $0x6e7520746e65696c,%rdx
    2eb9:	20 75 6e 
    2ebc:	48 89 45 00          	mov    %rax,0x0(%rbp)
    2ec0:	48 89 55 08          	mov    %rdx,0x8(%rbp)
    2ec4:	48 b8 61 62 6c 65 20 	movabs $0x206f7420656c6261,%rax
    2ecb:	74 6f 20 
    2ece:	48 ba 77 72 69 74 65 	movabs $0x6f74206574697277,%rdx
    2ed5:	20 74 6f 
    2ed8:	48 89 45 10          	mov    %rax,0x10(%rbp)
    2edc:	48 89 55 18          	mov    %rdx,0x18(%rbp)
    2ee0:	48 b8 20 74 68 65 20 	movabs $0x7365722065687420,%rax
    2ee7:	72 65 73 
    2eea:	48 ba 75 6c 74 20 73 	movabs $0x7672657320746c75,%rdx
    2ef1:	65 72 76 
    2ef4:	48 89 45 20          	mov    %rax,0x20(%rbp)
    2ef8:	48 89 55 28          	mov    %rdx,0x28(%rbp)
    2efc:	66 c7 45 30 65 72    	movw   $0x7265,0x30(%rbp)
    2f02:	c6 45 32 00          	movb   $0x0,0x32(%rbp)
    2f06:	89 df                	mov    %ebx,%edi
    2f08:	e8 f3 e3 ff ff       	callq  1300 <close@plt>
    2f0d:	b8 ff ff ff ff       	mov    $0xffffffff,%eax
    2f12:	e9 5c fd ff ff       	jmpq   2c73 <submitr+0x2f8>
    2f17:	48 b8 45 72 72 6f 72 	movabs $0x43203a726f727245,%rax
    2f1e:	3a 20 43 
    2f21:	48 ba 6c 69 65 6e 74 	movabs $0x6e7520746e65696c,%rdx
    2f28:	20 75 6e 
    2f2b:	48 89 45 00          	mov    %rax,0x0(%rbp)
    2f2f:	48 89 55 08          	mov    %rdx,0x8(%rbp)
    2f33:	48 b8 61 62 6c 65 20 	movabs $0x206f7420656c6261,%rax
    2f3a:	74 6f 20 
    2f3d:	48 ba 72 65 61 64 20 	movabs $0x7269662064616572,%rdx
    2f44:	66 69 72 
    2f47:	48 89 45 10          	mov    %rax,0x10(%rbp)
    2f4b:	48 89 55 18          	mov    %rdx,0x18(%rbp)
    2f4f:	48 b8 73 74 20 68 65 	movabs $0x6564616568207473,%rax
    2f56:	61 64 65 
    2f59:	48 ba 72 20 66 72 6f 	movabs $0x72206d6f72662072,%rdx
    2f60:	6d 20 72 
    2f63:	48 89 45 20          	mov    %rax,0x20(%rbp)
    2f67:	48 89 55 28          	mov    %rdx,0x28(%rbp)
    2f6b:	48 b8 65 73 75 6c 74 	movabs $0x657320746c757365,%rax
    2f72:	20 73 65 
    2f75:	48 89 45 30          	mov    %rax,0x30(%rbp)
    2f79:	c7 45 38 72 76 65 72 	movl   $0x72657672,0x38(%rbp)
    2f80:	c6 45 3c 00          	movb   $0x0,0x3c(%rbp)
    2f84:	89 df                	mov    %ebx,%edi
    2f86:	e8 75 e3 ff ff       	callq  1300 <close@plt>
    2f8b:	b8 ff ff ff ff       	mov    $0xffffffff,%eax
    2f90:	e9 de fc ff ff       	jmpq   2c73 <submitr+0x2f8>
    2f95:	48 8d b4 24 50 20 00 	lea    0x2050(%rsp),%rsi
    2f9c:	00 
    2f9d:	48 8d 7c 24 40       	lea    0x40(%rsp),%rdi
    2fa2:	ba 00 20 00 00       	mov    $0x2000,%edx
    2fa7:	e8 1e f8 ff ff       	callq  27ca <rio_readlineb>
    2fac:	48 85 c0             	test   %rax,%rax
    2faf:	0f 8e 96 00 00 00    	jle    304b <submitr+0x6d0>
    2fb5:	44 8b 44 24 2c       	mov    0x2c(%rsp),%r8d
    2fba:	41 81 f8 c8 00 00 00 	cmp    $0xc8,%r8d
    2fc1:	0f 85 08 01 00 00    	jne    30cf <submitr+0x754>
    2fc7:	48 8d b4 24 50 20 00 	lea    0x2050(%rsp),%rsi
    2fce:	00 
    2fcf:	48 89 ef             	mov    %rbp,%rdi
    2fd2:	e8 b9 e2 ff ff       	callq  1290 <strcpy@plt>
    2fd7:	89 df                	mov    %ebx,%edi
    2fd9:	e8 22 e3 ff ff       	callq  1300 <close@plt>
    2fde:	b9 04 00 00 00       	mov    $0x4,%ecx
    2fe3:	48 8d 3d a3 16 00 00 	lea    0x16a3(%rip),%rdi        # 468d <trans_char+0xbd>
    2fea:	48 89 ee             	mov    %rbp,%rsi
    2fed:	f3 a6                	repz cmpsb %es:(%rdi),%ds:(%rsi)
    2fef:	0f 97 c0             	seta   %al
    2ff2:	1c 00                	sbb    $0x0,%al
    2ff4:	0f be c0             	movsbl %al,%eax
    2ff7:	85 c0                	test   %eax,%eax
    2ff9:	0f 84 74 fc ff ff    	je     2c73 <submitr+0x2f8>
    2fff:	b9 05 00 00 00       	mov    $0x5,%ecx
    3004:	48 8d 3d 86 16 00 00 	lea    0x1686(%rip),%rdi        # 4691 <trans_char+0xc1>
    300b:	48 89 ee             	mov    %rbp,%rsi
    300e:	f3 a6                	repz cmpsb %es:(%rdi),%ds:(%rsi)
    3010:	0f 97 c0             	seta   %al
    3013:	1c 00                	sbb    $0x0,%al
    3015:	0f be c0             	movsbl %al,%eax
    3018:	85 c0                	test   %eax,%eax
    301a:	0f 84 53 fc ff ff    	je     2c73 <submitr+0x2f8>
    3020:	b9 03 00 00 00       	mov    $0x3,%ecx
    3025:	48 8d 3d 6a 16 00 00 	lea    0x166a(%rip),%rdi        # 4696 <trans_char+0xc6>
    302c:	48 89 ee             	mov    %rbp,%rsi
    302f:	f3 a6                	repz cmpsb %es:(%rdi),%ds:(%rsi)
    3031:	0f 97 c0             	seta   %al
    3034:	1c 00                	sbb    $0x0,%al
    3036:	0f be c0             	movsbl %al,%eax
    3039:	85 c0                	test   %eax,%eax
    303b:	0f 84 32 fc ff ff    	je     2c73 <submitr+0x2f8>
    3041:	b8 ff ff ff ff       	mov    $0xffffffff,%eax
    3046:	e9 28 fc ff ff       	jmpq   2c73 <submitr+0x2f8>
    304b:	48 b8 45 72 72 6f 72 	movabs $0x43203a726f727245,%rax
    3052:	3a 20 43 
    3055:	48 ba 6c 69 65 6e 74 	movabs $0x6e7520746e65696c,%rdx
    305c:	20 75 6e 
    305f:	48 89 45 00          	mov    %rax,0x0(%rbp)
    3063:	48 89 55 08          	mov    %rdx,0x8(%rbp)
    3067:	48 b8 61 62 6c 65 20 	movabs $0x206f7420656c6261,%rax
    306e:	74 6f 20 
    3071:	48 ba 72 65 61 64 20 	movabs $0x6174732064616572,%rdx
    3078:	73 74 61 
    307b:	48 89 45 10          	mov    %rax,0x10(%rbp)
    307f:	48 89 55 18          	mov    %rdx,0x18(%rbp)
    3083:	48 b8 74 75 73 20 6d 	movabs $0x7373656d20737574,%rax
    308a:	65 73 73 
    308d:	48 ba 61 67 65 20 66 	movabs $0x6d6f726620656761,%rdx
    3094:	72 6f 6d 
    3097:	48 89 45 20          	mov    %rax,0x20(%rbp)
    309b:	48 89 55 28          	mov    %rdx,0x28(%rbp)
    309f:	48 b8 20 72 65 73 75 	movabs $0x20746c7573657220,%rax
    30a6:	6c 74 20 
    30a9:	48 89 45 30          	mov    %rax,0x30(%rbp)
    30ad:	c7 45 38 73 65 72 76 	movl   $0x76726573,0x38(%rbp)
    30b4:	66 c7 45 3c 65 72    	movw   $0x7265,0x3c(%rbp)
    30ba:	c6 45 3e 00          	movb   $0x0,0x3e(%rbp)
    30be:	89 df                	mov    %ebx,%edi
    30c0:	e8 3b e2 ff ff       	callq  1300 <close@plt>
    30c5:	b8 ff ff ff ff       	mov    $0xffffffff,%eax
    30ca:	e9 a4 fb ff ff       	jmpq   2c73 <submitr+0x2f8>
    30cf:	4c 8d 8c 24 50 80 00 	lea    0x8050(%rsp),%r9
    30d6:	00 
    30d7:	48 8d 0d 6a 15 00 00 	lea    0x156a(%rip),%rcx        # 4648 <trans_char+0x78>
    30de:	48 c7 c2 ff ff ff ff 	mov    $0xffffffffffffffff,%rdx
    30e5:	be 01 00 00 00       	mov    $0x1,%esi
    30ea:	48 89 ef             	mov    %rbp,%rdi
    30ed:	b8 00 00 00 00       	mov    $0x0,%eax
    30f2:	e8 49 e3 ff ff       	callq  1440 <__sprintf_chk@plt>
    30f7:	89 df                	mov    %ebx,%edi
    30f9:	e8 02 e2 ff ff       	callq  1300 <close@plt>
    30fe:	b8 ff ff ff ff       	mov    $0xffffffff,%eax
    3103:	e9 6b fb ff ff       	jmpq   2c73 <submitr+0x2f8>
    3108:	e8 b3 e1 ff ff       	callq  12c0 <__stack_chk_fail@plt>

000000000000310d <init_timeout>:
    310d:	f3 0f 1e fa          	endbr64 
    3111:	85 ff                	test   %edi,%edi
    3113:	74 26                	je     313b <init_timeout+0x2e>
    3115:	53                   	push   %rbx
    3116:	89 fb                	mov    %edi,%ebx
    3118:	78 1a                	js     3134 <init_timeout+0x27>
    311a:	48 8d 35 8e f5 ff ff 	lea    -0xa72(%rip),%rsi        # 26af <sigalrm_handler>
    3121:	bf 0e 00 00 00       	mov    $0xe,%edi
    3126:	e8 f5 e1 ff ff       	callq  1320 <signal@plt>
    312b:	89 df                	mov    %ebx,%edi
    312d:	e8 be e1 ff ff       	callq  12f0 <alarm@plt>
    3132:	5b                   	pop    %rbx
    3133:	c3                   	retq   
    3134:	bb 00 00 00 00       	mov    $0x0,%ebx
    3139:	eb df                	jmp    311a <init_timeout+0xd>
    313b:	c3                   	retq   

000000000000313c <init_driver>:
    313c:	f3 0f 1e fa          	endbr64 
    3140:	41 54                	push   %r12
    3142:	55                   	push   %rbp
    3143:	53                   	push   %rbx
    3144:	48 83 ec 20          	sub    $0x20,%rsp
    3148:	48 89 fd             	mov    %rdi,%rbp
    314b:	64 48 8b 04 25 28 00 	mov    %fs:0x28,%rax
    3152:	00 00 
    3154:	48 89 44 24 18       	mov    %rax,0x18(%rsp)
    3159:	31 c0                	xor    %eax,%eax
    315b:	be 01 00 00 00       	mov    $0x1,%esi
    3160:	bf 0d 00 00 00       	mov    $0xd,%edi
    3165:	e8 b6 e1 ff ff       	callq  1320 <signal@plt>
    316a:	be 01 00 00 00       	mov    $0x1,%esi
    316f:	bf 1d 00 00 00       	mov    $0x1d,%edi
    3174:	e8 a7 e1 ff ff       	callq  1320 <signal@plt>
    3179:	be 01 00 00 00       	mov    $0x1,%esi
    317e:	bf 1d 00 00 00       	mov    $0x1d,%edi
    3183:	e8 98 e1 ff ff       	callq  1320 <signal@plt>
    3188:	ba 00 00 00 00       	mov    $0x0,%edx
    318d:	be 01 00 00 00       	mov    $0x1,%esi
    3192:	bf 02 00 00 00       	mov    $0x2,%edi
    3197:	e8 b4 e2 ff ff       	callq  1450 <socket@plt>
    319c:	85 c0                	test   %eax,%eax
    319e:	0f 88 9c 00 00 00    	js     3240 <init_driver+0x104>
    31a4:	89 c3                	mov    %eax,%ebx
    31a6:	48 8d 3d ec 14 00 00 	lea    0x14ec(%rip),%rdi        # 4699 <trans_char+0xc9>
    31ad:	e8 7e e1 ff ff       	callq  1330 <gethostbyname@plt>
    31b2:	48 85 c0             	test   %rax,%rax
    31b5:	0f 84 d1 00 00 00    	je     328c <init_driver+0x150>
    31bb:	49 89 e4             	mov    %rsp,%r12
    31be:	48 c7 04 24 00 00 00 	movq   $0x0,(%rsp)
    31c5:	00 
    31c6:	48 c7 44 24 08 00 00 	movq   $0x0,0x8(%rsp)
    31cd:	00 00 
    31cf:	66 c7 04 24 02 00    	movw   $0x2,(%rsp)
    31d5:	48 63 50 14          	movslq 0x14(%rax),%rdx
    31d9:	48 8b 40 18          	mov    0x18(%rax),%rax
    31dd:	48 8b 30             	mov    (%rax),%rsi
    31e0:	48 8d 7c 24 04       	lea    0x4(%rsp),%rdi
    31e5:	b9 0c 00 00 00       	mov    $0xc,%ecx
    31ea:	e8 51 e1 ff ff       	callq  1340 <__memmove_chk@plt>
    31ef:	66 c7 44 24 02 3c 9a 	movw   $0x9a3c,0x2(%rsp)
    31f6:	ba 10 00 00 00       	mov    $0x10,%edx
    31fb:	4c 89 e6             	mov    %r12,%rsi
    31fe:	89 df                	mov    %ebx,%edi
    3200:	e8 0b e2 ff ff       	callq  1410 <connect@plt>
    3205:	85 c0                	test   %eax,%eax
    3207:	0f 88 e7 00 00 00    	js     32f4 <init_driver+0x1b8>
    320d:	89 df                	mov    %ebx,%edi
    320f:	e8 ec e0 ff ff       	callq  1300 <close@plt>
    3214:	66 c7 45 00 4f 4b    	movw   $0x4b4f,0x0(%rbp)
    321a:	c6 45 02 00          	movb   $0x0,0x2(%rbp)
    321e:	b8 00 00 00 00       	mov    $0x0,%eax
    3223:	48 8b 4c 24 18       	mov    0x18(%rsp),%rcx
    3228:	64 48 33 0c 25 28 00 	xor    %fs:0x28,%rcx
    322f:	00 00 
    3231:	0f 85 10 01 00 00    	jne    3347 <init_driver+0x20b>
    3237:	48 83 c4 20          	add    $0x20,%rsp
    323b:	5b                   	pop    %rbx
    323c:	5d                   	pop    %rbp
    323d:	41 5c                	pop    %r12
    323f:	c3                   	retq   
    3240:	48 b8 45 72 72 6f 72 	movabs $0x43203a726f727245,%rax
    3247:	3a 20 43 
    324a:	48 ba 6c 69 65 6e 74 	movabs $0x6e7520746e65696c,%rdx
    3251:	20 75 6e 
    3254:	48 89 45 00          	mov    %rax,0x0(%rbp)
    3258:	48 89 55 08          	mov    %rdx,0x8(%rbp)
    325c:	48 b8 61 62 6c 65 20 	movabs $0x206f7420656c6261,%rax
    3263:	74 6f 20 
    3266:	48 ba 63 72 65 61 74 	movabs $0x7320657461657263,%rdx
    326d:	65 20 73 
    3270:	48 89 45 10          	mov    %rax,0x10(%rbp)
    3274:	48 89 55 18          	mov    %rdx,0x18(%rbp)
    3278:	c7 45 20 6f 63 6b 65 	movl   $0x656b636f,0x20(%rbp)
    327f:	66 c7 45 24 74 00    	movw   $0x74,0x24(%rbp)
    3285:	b8 ff ff ff ff       	mov    $0xffffffff,%eax
    328a:	eb 97                	jmp    3223 <init_driver+0xe7>
    328c:	48 b8 45 72 72 6f 72 	movabs $0x44203a726f727245,%rax
    3293:	3a 20 44 
    3296:	48 ba 4e 53 20 69 73 	movabs $0x6e7520736920534e,%rdx
    329d:	20 75 6e 
    32a0:	48 89 45 00          	mov    %rax,0x0(%rbp)
    32a4:	48 89 55 08          	mov    %rdx,0x8(%rbp)
    32a8:	48 b8 61 62 6c 65 20 	movabs $0x206f7420656c6261,%rax
    32af:	74 6f 20 
    32b2:	48 ba 72 65 73 6f 6c 	movabs $0x2065766c6f736572,%rdx
    32b9:	76 65 20 
    32bc:	48 89 45 10          	mov    %rax,0x10(%rbp)
    32c0:	48 89 55 18          	mov    %rdx,0x18(%rbp)
    32c4:	48 b8 73 65 72 76 65 	movabs $0x6120726576726573,%rax
    32cb:	72 20 61 
    32ce:	48 89 45 20          	mov    %rax,0x20(%rbp)
    32d2:	c7 45 28 64 64 72 65 	movl   $0x65726464,0x28(%rbp)
    32d9:	66 c7 45 2c 73 73    	movw   $0x7373,0x2c(%rbp)
    32df:	c6 45 2e 00          	movb   $0x0,0x2e(%rbp)
    32e3:	89 df                	mov    %ebx,%edi
    32e5:	e8 16 e0 ff ff       	callq  1300 <close@plt>
    32ea:	b8 ff ff ff ff       	mov    $0xffffffff,%eax
    32ef:	e9 2f ff ff ff       	jmpq   3223 <init_driver+0xe7>
    32f4:	48 b8 45 72 72 6f 72 	movabs $0x55203a726f727245,%rax
    32fb:	3a 20 55 
    32fe:	48 ba 6e 61 62 6c 65 	movabs $0x6f7420656c62616e,%rdx
    3305:	20 74 6f 
    3308:	48 89 45 00          	mov    %rax,0x0(%rbp)
    330c:	48 89 55 08          	mov    %rdx,0x8(%rbp)
    3310:	48 b8 20 63 6f 6e 6e 	movabs $0x7463656e6e6f6320,%rax
    3317:	65 63 74 
    331a:	48 ba 20 74 6f 20 73 	movabs $0x76726573206f7420,%rdx
    3321:	65 72 76 
    3324:	48 89 45 10          	mov    %rax,0x10(%rbp)
    3328:	48 89 55 18          	mov    %rdx,0x18(%rbp)
    332c:	66 c7 45 20 65 72    	movw   $0x7265,0x20(%rbp)
    3332:	c6 45 22 00          	movb   $0x0,0x22(%rbp)
    3336:	89 df                	mov    %ebx,%edi
    3338:	e8 c3 df ff ff       	callq  1300 <close@plt>
    333d:	b8 ff ff ff ff       	mov    $0xffffffff,%eax
    3342:	e9 dc fe ff ff       	jmpq   3223 <init_driver+0xe7>
    3347:	e8 74 df ff ff       	callq  12c0 <__stack_chk_fail@plt>

000000000000334c <driver_post>:
    334c:	f3 0f 1e fa          	endbr64 
    3350:	53                   	push   %rbx
    3351:	4c 89 cb             	mov    %r9,%rbx
    3354:	45 85 c0             	test   %r8d,%r8d
    3357:	75 18                	jne    3371 <driver_post+0x25>
    3359:	48 85 ff             	test   %rdi,%rdi
    335c:	74 05                	je     3363 <driver_post+0x17>
    335e:	80 3f 00             	cmpb   $0x0,(%rdi)
    3361:	75 37                	jne    339a <driver_post+0x4e>
    3363:	66 c7 03 4f 4b       	movw   $0x4b4f,(%rbx)
    3368:	c6 43 02 00          	movb   $0x0,0x2(%rbx)
    336c:	44 89 c0             	mov    %r8d,%eax
    336f:	5b                   	pop    %rbx
    3370:	c3                   	retq   
    3371:	48 89 ca             	mov    %rcx,%rdx
    3374:	48 8d 35 36 13 00 00 	lea    0x1336(%rip),%rsi        # 46b1 <trans_char+0xe1>
    337b:	bf 01 00 00 00       	mov    $0x1,%edi
    3380:	b8 00 00 00 00       	mov    $0x0,%eax
    3385:	e8 26 e0 ff ff       	callq  13b0 <__printf_chk@plt>
    338a:	66 c7 03 4f 4b       	movw   $0x4b4f,(%rbx)
    338f:	c6 43 02 00          	movb   $0x0,0x2(%rbx)
    3393:	b8 00 00 00 00       	mov    $0x0,%eax
    3398:	eb d5                	jmp    336f <driver_post+0x23>
    339a:	48 83 ec 08          	sub    $0x8,%rsp
    339e:	41 51                	push   %r9
    33a0:	49 89 c9             	mov    %rcx,%r9
    33a3:	49 89 d0             	mov    %rdx,%r8
    33a6:	48 89 f9             	mov    %rdi,%rcx
    33a9:	48 89 f2             	mov    %rsi,%rdx
    33ac:	be 9a 3c 00 00       	mov    $0x3c9a,%esi
    33b1:	48 8d 3d e1 12 00 00 	lea    0x12e1(%rip),%rdi        # 4699 <trans_char+0xc9>
    33b8:	e8 be f5 ff ff       	callq  297b <submitr>
    33bd:	48 83 c4 10          	add    $0x10,%rsp
    33c1:	eb ac                	jmp    336f <driver_post+0x23>

00000000000033c3 <check>:
    33c3:	f3 0f 1e fa          	endbr64 
    33c7:	89 f8                	mov    %edi,%eax
    33c9:	c1 e8 1c             	shr    $0x1c,%eax
    33cc:	74 1d                	je     33eb <check+0x28>
    33ce:	b9 00 00 00 00       	mov    $0x0,%ecx
    33d3:	83 f9 1f             	cmp    $0x1f,%ecx
    33d6:	7f 0d                	jg     33e5 <check+0x22>
    33d8:	89 f8                	mov    %edi,%eax
    33da:	d3 e8                	shr    %cl,%eax
    33dc:	3c 0a                	cmp    $0xa,%al
    33de:	74 11                	je     33f1 <check+0x2e>
    33e0:	83 c1 08             	add    $0x8,%ecx
    33e3:	eb ee                	jmp    33d3 <check+0x10>
    33e5:	b8 01 00 00 00       	mov    $0x1,%eax
    33ea:	c3                   	retq   
    33eb:	b8 00 00 00 00       	mov    $0x0,%eax
    33f0:	c3                   	retq   
    33f1:	b8 00 00 00 00       	mov    $0x0,%eax
    33f6:	c3                   	retq   

00000000000033f7 <gencookie>:
    33f7:	f3 0f 1e fa          	endbr64 
    33fb:	53                   	push   %rbx
    33fc:	83 c7 01             	add    $0x1,%edi
    33ff:	e8 6c de ff ff       	callq  1270 <srandom@plt>
    3404:	e8 77 df ff ff       	callq  1380 <random@plt>
    3409:	48 89 c7             	mov    %rax,%rdi
    340c:	89 c3                	mov    %eax,%ebx
    340e:	e8 b0 ff ff ff       	callq  33c3 <check>
    3413:	85 c0                	test   %eax,%eax
    3415:	74 ed                	je     3404 <gencookie+0xd>
    3417:	89 d8                	mov    %ebx,%eax
    3419:	5b                   	pop    %rbx
    341a:	c3                   	retq   
    341b:	0f 1f 44 00 00       	nopl   0x0(%rax,%rax,1)

0000000000003420 <__libc_csu_init>:
    3420:	f3 0f 1e fa          	endbr64 
    3424:	41 57                	push   %r15
    3426:	4c 8d 3d 8b 38 00 00 	lea    0x388b(%rip),%r15        # 6cb8 <__frame_dummy_init_array_entry>
    342d:	41 56                	push   %r14
    342f:	49 89 d6             	mov    %rdx,%r14
    3432:	41 55                	push   %r13
    3434:	49 89 f5             	mov    %rsi,%r13
    3437:	41 54                	push   %r12
    3439:	41 89 fc             	mov    %edi,%r12d
    343c:	55                   	push   %rbp
    343d:	48 8d 2d 7c 38 00 00 	lea    0x387c(%rip),%rbp        # 6cc0 <__do_global_dtors_aux_fini_array_entry>
    3444:	53                   	push   %rbx
    3445:	4c 29 fd             	sub    %r15,%rbp
    3448:	48 83 ec 08          	sub    $0x8,%rsp
    344c:	e8 af db ff ff       	callq  1000 <_init>
    3451:	48 c1 fd 03          	sar    $0x3,%rbp
    3455:	74 1f                	je     3476 <__libc_csu_init+0x56>
    3457:	31 db                	xor    %ebx,%ebx
    3459:	0f 1f 80 00 00 00 00 	nopl   0x0(%rax)
    3460:	4c 89 f2             	mov    %r14,%rdx
    3463:	4c 89 ee             	mov    %r13,%rsi
    3466:	44 89 e7             	mov    %r12d,%edi
    3469:	41 ff 14 df          	callq  *(%r15,%rbx,8)
    346d:	48 83 c3 01          	add    $0x1,%rbx
    3471:	48 39 dd             	cmp    %rbx,%rbp
    3474:	75 ea                	jne    3460 <__libc_csu_init+0x40>
    3476:	48 83 c4 08          	add    $0x8,%rsp
    347a:	5b                   	pop    %rbx
    347b:	5d                   	pop    %rbp
    347c:	41 5c                	pop    %r12
    347e:	41 5d                	pop    %r13
    3480:	41 5e                	pop    %r14
    3482:	41 5f                	pop    %r15
    3484:	c3                   	retq   
    3485:	66 66 2e 0f 1f 84 00 	data16 nopw %cs:0x0(%rax,%rax,1)
    348c:	00 00 00 00 

0000000000003490 <__libc_csu_fini>:
    3490:	f3 0f 1e fa          	endbr64 
    3494:	c3                   	retq   

Disassembly of section .fini:

0000000000003498 <_fini>:
    3498:	f3 0f 1e fa          	endbr64 
    349c:	48 83 ec 08          	sub    $0x8,%rsp
    34a0:	48 83 c4 08          	add    $0x8,%rsp
    34a4:	c3                   	retq   
